
interface.elf：     文件格式 elf32-littlearm


Disassembly of section .text:

c0008000 <_start>:
.text

	.global	_start
_start:
@ 异常向量表
	b reset
c0008000:	ea00000d 	b	c000803c <reset>
	ldr pc, _undefined_instruction
c0008004:	e59ff014 	ldr	pc, [pc, #20]	; c0008020 <_undefined_instruction>
	ldr pc, _software_interrupt
c0008008:	e59ff014 	ldr	pc, [pc, #20]	; c0008024 <_software_interrupt>
	ldr pc, _prefetch_abort
c000800c:	e59ff014 	ldr	pc, [pc, #20]	; c0008028 <_prefetch_abort>
	ldr pc, _data_abort
c0008010:	e59ff014 	ldr	pc, [pc, #20]	; c000802c <_data_abort>
	ldr pc, _not_used
c0008014:	e59ff014 	ldr	pc, [pc, #20]	; c0008030 <_not_used>
	ldr pc, _irq
c0008018:	e59ff014 	ldr	pc, [pc, #20]	; c0008034 <_irq>
	ldr pc, _fiq
c000801c:	e59ff014 	ldr	pc, [pc, #20]	; c0008038 <_fiq>

c0008020 <_undefined_instruction>:
c0008020:	c0008140 	andgt	r8, r0, r0, asr #2

c0008024 <_software_interrupt>:
c0008024:	c0008160 	andgt	r8, r0, r0, ror #2

c0008028 <_prefetch_abort>:
c0008028:	c0008180 	andgt	r8, r0, r0, lsl #3

c000802c <_data_abort>:
c000802c:	c00081a0 	andgt	r8, r0, r0, lsr #3

c0008030 <_not_used>:
c0008030:	c00081c0 	andgt	r8, r0, r0, asr #3

c0008034 <_irq>:
c0008034:	c00081e0 	andgt	r8, r0, r0, ror #3

c0008038 <_fiq>:
c0008038:	c0008200 	andgt	r8, r0, r0, lsl #4

c000803c <reset>:

 /* The actual reset code */
reset:
	@ 重新映射异常向量表的入口地址
	/* Set Vector Base Address Register */
	mrc p15, 0, r0, c1, c0, 0
c000803c:	ee110f10 	mrc	15, 0, r0, cr1, cr0, {0}
	bic r0, #(1<<13)
c0008040:	e3c00a02 	bic	r0, r0, #8192	; 0x2000
	mcr p15, 0, r0, c1, c0, 0
c0008044:	ee010f10 	mcr	15, 0, r0, cr1, cr0, {0}
	ldr	r0,=0xc0008000
c0008048:	e59f01b8 	ldr	r0, [pc, #440]	; c0008208 <stacktop+0x4>
	mcr	p15,0,r0,c12,c0,0		@ Vector Base Address Register
c000804c:	ee0c0f10 	mcr	15, 0, r0, cr12, cr0, {0}

	/* Set the cpu to svc32 mode */
	mrs r0, cpsr
c0008050:	e10f0000 	mrs	r0, CPSR
	bic r0, r0, #0x1f
c0008054:	e3c0001f 	bic	r0, r0, #31
	orr r0, r0, #0xd3
c0008058:	e38000d3 	orr	r0, r0, #211	; 0xd3
	msr cpsr, r0
c000805c:	e129f000 	msr	CPSR_fc, r0

	/* Enable NEON/VFP unit */
	mrc p15, #0, r1, c1, c0, #2
c0008060:	ee111f50 	mrc	15, 0, r1, cr1, cr0, {2}
	orr r1, r1, #(0xf << 20)
c0008064:	e381160f 	orr	r1, r1, #15728640	; 0xf00000
	mcr p15, #0, r1, c1, c0, #2
c0008068:	ee011f50 	mcr	15, 0, r1, cr1, cr0, {2}
	mov r1, #0
c000806c:	e3a01000 	mov	r1, #0
	mcr p15, #0, r1, c7, c5, #4
c0008070:	ee071f95 	mcr	15, 0, r1, cr7, cr5, {4}
	mov r0, #0x40000000
c0008074:	e3a00101 	mov	r0, #1073741824	; 0x40000000
	fmxr fpexc, r0
c0008078:	eee80a10 	vmsr	fpexc, r0

	/* Cache init */
	mrc	p15, 0, r0, c0, c0, 0
c000807c:	ee100f10 	mrc	15, 0, r0, cr0, cr0, {0}
	and	r1, r0, #0x00f00000
c0008080:	e200160f 	and	r1, r0, #15728640	; 0xf00000
	and	r2, r0, #0x0000000f
c0008084:	e200200f 	and	r2, r0, #15
	orr r2, r2, r1, lsr #20-4
c0008088:	e1822821 	orr	r2, r2, r1, lsr #16
	cmp r2, #0x30
c000808c:	e3520030 	cmp	r2, #48	; 0x30
	mrceq p15, 0, r0, c1, c0, 1
c0008090:	0e110f30 	mrceq	15, 0, r0, cr1, cr0, {1}
	orreq r0, r0, #0x6
c0008094:	03800006 	orreq	r0, r0, #6
	mcreq p15, 0, r0, c1, c0, 1
c0008098:	0e010f30 	mcreq	15, 0, r0, cr1, cr0, {1}

	/* Invalidate L1 I/D */
	mov r0, #0
c000809c:	e3a00000 	mov	r0, #0
	mcr	p15, 0, r0, c8, c7, 0
c00080a0:	ee080f17 	mcr	15, 0, r0, cr8, cr7, {0}
	mcr	p15, 0, r0, c7, c5, 0
c00080a4:	ee070f15 	mcr	15, 0, r0, cr7, cr5, {0}

	/* Disable mmu stuff and caches */
	mrc p15, 0, r0, c1, c0, 0
c00080a8:	ee110f10 	mrc	15, 0, r0, cr1, cr0, {0}
	bic r0, r0, #0x00002000
c00080ac:	e3c00a02 	bic	r0, r0, #8192	; 0x2000
	bic r0, r0, #0x00000007
c00080b0:	e3c00007 	bic	r0, r0, #7
	orr r0, r0, #0x00001000
c00080b4:	e3800a01 	orr	r0, r0, #4096	; 0x1000
	orr r0, r0, #0x00000002
c00080b8:	e3800002 	orr	r0, r0, #2
	orr r0, r0, #0x00000800
c00080bc:	e3800b02 	orr	r0, r0, #2048	; 0x800
	mcr p15, 0, r0, c1, c0, 0
c00080c0:	ee010f10 	mcr	15, 0, r0, cr1, cr0, {0}

c00080c4 <init_stack>:

	/* Initialize stacks */
	@ 初始化各种模式下的栈空间
init_stack:
	ldr	r0, stacktop        /*get stack top pointer*/
c00080c4:	e59f0138 	ldr	r0, [pc, #312]	; c0008204 <stacktop>

	/********svc mode stack********/
	mov	sp, r0
c00080c8:	e1a0d000 	mov	sp, r0
	sub	r0, #128*4          /*512 byte  for irq mode of stack*/
c00080cc:	e2400c02 	sub	r0, r0, #512	; 0x200
	/********irq mode stack********/
	msr	cpsr, #0xd2
c00080d0:	e329f0d2 	msr	CPSR_fc, #210	; 0xd2
	mov	sp, r0
c00080d4:	e1a0d000 	mov	sp, r0
	sub	r0, #128*4          /*512 byte  for fiq mode of stack*/
c00080d8:	e2400c02 	sub	r0, r0, #512	; 0x200
	/********fiq mode stack********/
	msr	cpsr, #0xd1
c00080dc:	e329f0d1 	msr	CPSR_fc, #209	; 0xd1
	mov	sp, r0
c00080e0:	e1a0d000 	mov	sp, r0
	sub	r0, #0
c00080e4:	e2400000 	sub	r0, r0, #0
	/********abort mode stack******/
	msr	cpsr, #0xd7
c00080e8:	e329f0d7 	msr	CPSR_fc, #215	; 0xd7
	mov	sp, r0
c00080ec:	e1a0d000 	mov	sp, r0
	sub	r0, #0
c00080f0:	e2400000 	sub	r0, r0, #0
	/********undefine mode stack**/
	msr	cpsr, #0xdb
c00080f4:	e329f0db 	msr	CPSR_fc, #219	; 0xdb
	mov	sp, r0
c00080f8:	e1a0d000 	mov	sp, r0
	sub	r0, #0
c00080fc:	e2400000 	sub	r0, r0, #0
    /***sys mode and usr mode stack***/
	msr	cpsr, #0x10
c0008100:	e329f010 	msr	CPSR_fc, #16
	mov	sp, r0             /*1024 byte  for user mode of stack*/
c0008104:	e1a0d000 	mov	sp, r0

    /******clear bss section********/
	@ 清除BSS段
	ldr	r0, =__bss_start	/* this is auto-relocated! */
c0008108:	e59f00fc 	ldr	r0, [pc, #252]	; c000820c <stacktop+0x8>
	ldr	r1, =__bss_end__	/* this is auto-relocated! */
c000810c:	e59f10fc 	ldr	r1, [pc, #252]	; c0008210 <stacktop+0xc>
	mov	r2, #0x00000000		/* prepare zero to clear BSS */
c0008110:	e3a02000 	mov	r2, #0

c0008114 <clbss_l>:

clbss_l: cmp r0, r1			/* while not at end of BSS */
c0008114:	e1500001 	cmp	r0, r1
	strlo r2, [r0]			/* clear 32-bit BSS word */
c0008118:	35802000 	strcc	r2, [r0]
	addlo r0, r0, #4		/* move to next */
c000811c:	32800004 	addcc	r0, r0, #4
	blo	clbss_l
c0008120:	3afffffb 	bcc	c0008114 <clbss_l>

	/* Call _main */
	ldr pc, =main     @ 汇编调用C  跳转到main.c文件的main函数中
c0008124:	e59ff0e8 	ldr	pc, [pc, #232]	; c0008214 <stacktop+0x10>
c0008128:	e320f000 	nop	{0}
c000812c:	e320f000 	nop	{0}
c0008130:	e320f000 	nop	{0}
c0008134:	e320f000 	nop	{0}
c0008138:	e320f000 	nop	{0}
c000813c:	e320f000 	nop	{0}

c0008140 <undefined_instruction>:
/*
 * Exception handlers
 */
	.align 5  // 2的5次方，=32bit 也就是4字节对其
undefined_instruction:
	b	.
c0008140:	eafffffe 	b	c0008140 <undefined_instruction>
c0008144:	e320f000 	nop	{0}
c0008148:	e320f000 	nop	{0}
c000814c:	e320f000 	nop	{0}
c0008150:	e320f000 	nop	{0}
c0008154:	e320f000 	nop	{0}
c0008158:	e320f000 	nop	{0}
c000815c:	e320f000 	nop	{0}

c0008160 <software_interrupt>:

	.align 5
software_interrupt:
	b	.
c0008160:	eafffffe 	b	c0008160 <software_interrupt>
c0008164:	e320f000 	nop	{0}
c0008168:	e320f000 	nop	{0}
c000816c:	e320f000 	nop	{0}
c0008170:	e320f000 	nop	{0}
c0008174:	e320f000 	nop	{0}
c0008178:	e320f000 	nop	{0}
c000817c:	e320f000 	nop	{0}

c0008180 <prefetch_abort>:

	.align 5
prefetch_abort:
	b	.
c0008180:	eafffffe 	b	c0008180 <prefetch_abort>
c0008184:	e320f000 	nop	{0}
c0008188:	e320f000 	nop	{0}
c000818c:	e320f000 	nop	{0}
c0008190:	e320f000 	nop	{0}
c0008194:	e320f000 	nop	{0}
c0008198:	e320f000 	nop	{0}
c000819c:	e320f000 	nop	{0}

c00081a0 <data_abort>:

	.align 5
data_abort:
	b	.
c00081a0:	eafffffe 	b	c00081a0 <data_abort>
c00081a4:	e320f000 	nop	{0}
c00081a8:	e320f000 	nop	{0}
c00081ac:	e320f000 	nop	{0}
c00081b0:	e320f000 	nop	{0}
c00081b4:	e320f000 	nop	{0}
c00081b8:	e320f000 	nop	{0}
c00081bc:	e320f000 	nop	{0}

c00081c0 <not_used>:

	.align 5
not_used:
	b	.
c00081c0:	eafffffe 	b	c00081c0 <not_used>
c00081c4:	e320f000 	nop	{0}
c00081c8:	e320f000 	nop	{0}
c00081cc:	e320f000 	nop	{0}
c00081d0:	e320f000 	nop	{0}
c00081d4:	e320f000 	nop	{0}
c00081d8:	e320f000 	nop	{0}
c00081dc:	e320f000 	nop	{0}

c00081e0 <irq>:

	.align 5
	.global irq
irq:
	sub  lr, lr, #4
c00081e0:	e24ee004 	sub	lr, lr, #4
	stmfd sp!, {r0-r12, lr}
c00081e4:	e92d5fff 	push	{r0, r1, r2, r3, r4, r5, r6, r7, r8, r9, sl, fp, ip, lr}
	bl do_irq   @中断处理函数
c00081e8:	eb0005b3 	bl	c00098bc <do_irq>
	ldmfd sp!, {r0-r12, pc}^
c00081ec:	e8fd9fff 	ldm	sp!, {r0, r1, r2, r3, r4, r5, r6, r7, r8, r9, sl, fp, ip, pc}^
c00081f0:	e320f000 	nop	{0}
c00081f4:	e320f000 	nop	{0}
c00081f8:	e320f000 	nop	{0}
c00081fc:	e320f000 	nop	{0}

c0008200 <fiq>:

	.align 5
	.global fiq
fiq:
	b .
c0008200:	eafffffe 	b	c0008200 <fiq>

c0008204 <stacktop>:
c0008204:	c000a4f4 	strdgt	sl, [r0], -r4
	ldr	r0,=0xc0008000
c0008208:	c0008000 	andgt	r8, r0, r0
	ldr	r0, =__bss_start	/* this is auto-relocated! */
c000820c:	c000a600 	andgt	sl, r0, r0, lsl #12
	ldr	r1, =__bss_end__	/* this is auto-relocated! */
c0008210:	c000a604 	andgt	sl, r0, r4, lsl #12
	ldr pc, =main     @ 汇编调用C  跳转到main.c文件的main函数中
c0008214:	c0009c88 	andgt	r9, r0, r8, lsl #25

c0008218 <__umodsi3>:
	.text
	.globl	 __umodsi3
	.type  __umodsi3       ,function
	.align 0
 __umodsi3      :
	cmp	divisor, #0
c0008218:	e3510000 	cmp	r1, #0
	beq	Ldiv0
c000821c:	0a000026 	beq	c00082bc <Ldiv0>
	mov	curbit, #1
c0008220:	e3a03001 	mov	r3, #1
	cmp	dividend, divisor
c0008224:	e1500001 	cmp	r0, r1
	movcc	pc, lr
c0008228:	31a0f00e 	movcc	pc, lr

c000822c <Loop1>:
Loop1:
	@ Unless the divisor is very big, shift it up in multiples of
	@ four bits, since this is the amount of unwinding in the main
	@ division loop.  Continue shifting until the divisor is
	@ larger than the dividend.
	cmp	divisor, #0x10000000
c000822c:	e3510201 	cmp	r1, #268435456	; 0x10000000
	cmpcc	divisor, dividend
c0008230:	31510000 	cmpcc	r1, r0
	movcc	divisor, divisor, lsl #4
c0008234:	31a01201 	lslcc	r1, r1, #4
	movcc	curbit, curbit, lsl #4
c0008238:	31a03203 	lslcc	r3, r3, #4
	bcc	Loop1
c000823c:	3afffffa 	bcc	c000822c <Loop1>

c0008240 <Lbignum>:
Lbignum:
	@ For very big divisors, we must shift it a bit at a time, or
	@ we will be in danger of overflowing.
	cmp	divisor, #0x80000000
c0008240:	e3510102 	cmp	r1, #-2147483648	; 0x80000000
	cmpcc	divisor, dividend
c0008244:	31510000 	cmpcc	r1, r0
	movcc	divisor, divisor, lsl #1
c0008248:	31a01081 	lslcc	r1, r1, #1
	movcc	curbit, curbit, lsl #1
c000824c:	31a03083 	lslcc	r3, r3, #1
	bcc	Lbignum
c0008250:	3afffffa 	bcc	c0008240 <Lbignum>

c0008254 <Loop3>:
Loop3:
	@ Test for possible subtractions.  On the final pass, this may
	@ subtract too much from the dividend, so keep track of which
	@ subtractions are done, we can fix them up afterwards...
	mov	overdone, #0
c0008254:	e3a02000 	mov	r2, #0
	cmp	dividend, divisor
c0008258:	e1500001 	cmp	r0, r1
	subcs	dividend, dividend, divisor
c000825c:	20400001 	subcs	r0, r0, r1
	cmp	dividend, divisor, lsr #1
c0008260:	e15000a1 	cmp	r0, r1, lsr #1
	subcs	dividend, dividend, divisor, lsr #1
c0008264:	204000a1 	subcs	r0, r0, r1, lsr #1
	orrcs	overdone, overdone, curbit, ror #1
c0008268:	218220e3 	orrcs	r2, r2, r3, ror #1
	cmp	dividend, divisor, lsr #2
c000826c:	e1500121 	cmp	r0, r1, lsr #2
	subcs	dividend, dividend, divisor, lsr #2
c0008270:	20400121 	subcs	r0, r0, r1, lsr #2
	orrcs	overdone, overdone, curbit, ror #2
c0008274:	21822163 	orrcs	r2, r2, r3, ror #2
	cmp	dividend, divisor, lsr #3
c0008278:	e15001a1 	cmp	r0, r1, lsr #3
	subcs	dividend, dividend, divisor, lsr #3
c000827c:	204001a1 	subcs	r0, r0, r1, lsr #3
	orrcs	overdone, overdone, curbit, ror #3
c0008280:	218221e3 	orrcs	r2, r2, r3, ror #3
	mov	ip, curbit
c0008284:	e1a0c003 	mov	ip, r3
	cmp	dividend, #0			@ Early termination?
c0008288:	e3500000 	cmp	r0, #0
	movnes	curbit, curbit, lsr #4		@ No, any more bits to do?
c000828c:	11b03223 	lsrsne	r3, r3, #4
	movne	divisor, divisor, lsr #4
c0008290:	11a01221 	lsrne	r1, r1, #4
	bne	Loop3
c0008294:	1affffee 	bne	c0008254 <Loop3>
	@ the top three bits of "overdone".  Exactly which were not needed
	@ are governed by the position of the bit, stored in ip.
	@ If we terminated early, because dividend became zero,
	@ then none of the below will match, since the bit in ip will not be
	@ in the bottom nibble.
	ands	overdone, overdone, #0xe0000000
c0008298:	e212220e 	ands	r2, r2, #-536870912	; 0xe0000000
	moveq	pc, lr				@ No fixups needed
c000829c:	01a0f00e 	moveq	pc, lr
	tst	overdone, ip, ror #3
c00082a0:	e11201ec 	tst	r2, ip, ror #3
	addne	dividend, dividend, divisor, lsr #3
c00082a4:	108001a1 	addne	r0, r0, r1, lsr #3
	tst	overdone, ip, ror #2
c00082a8:	e112016c 	tst	r2, ip, ror #2
	addne	dividend, dividend, divisor, lsr #2
c00082ac:	10800121 	addne	r0, r0, r1, lsr #2
	tst	overdone, ip, ror #1
c00082b0:	e11200ec 	tst	r2, ip, ror #1
	addne	dividend, dividend, divisor, lsr #1
c00082b4:	108000a1 	addne	r0, r0, r1, lsr #1
	mov	pc, lr
c00082b8:	e1a0f00e 	mov	pc, lr

c00082bc <Ldiv0>:
Ldiv0:
	str	lr, [sp, #-4]!
c00082bc:	e52de004 	push	{lr}		; (str lr, [sp, #-4]!)
@	bl	 __div0       (PLT)
	mov	r0, #0			@ about as wrong as it could be
c00082c0:	e3a00000 	mov	r0, #0
	ldmia	sp!, {pc}
c00082c4:	e8bd8000 	ldmfd	sp!, {pc}

c00082c8 <__udivsi3>:
	.text
	.globl	 __udivsi3
	.type  __udivsi3       ,function
	.align	0
 __udivsi3      :
	cmp	divisor, #0
c00082c8:	e3510000 	cmp	r1, #0
	beq	Ldiv0
c00082cc:	0a00001f 	beq	c0008350 <Ldiv0>
	mov	curbit, #1
c00082d0:	e3a03001 	mov	r3, #1
	mov	result, #0
c00082d4:	e3a02000 	mov	r2, #0
	cmp	dividend, divisor
c00082d8:	e1500001 	cmp	r0, r1
	bcc	Lgot_result
c00082dc:	3a000019 	bcc	c0008348 <Lgot_result>

c00082e0 <Loop1>:
Loop1:
	@ Unless the divisor is very big, shift it up in multiples of
	@ four bits, since this is the amount of unwinding in the main
	@ division loop.  Continue shifting until the divisor is
	@ larger than the dividend.
	cmp	divisor, #0x10000000
c00082e0:	e3510201 	cmp	r1, #268435456	; 0x10000000
	cmpcc	divisor, dividend
c00082e4:	31510000 	cmpcc	r1, r0
	movcc	divisor, divisor, lsl #4
c00082e8:	31a01201 	lslcc	r1, r1, #4
	movcc	curbit, curbit, lsl #4
c00082ec:	31a03203 	lslcc	r3, r3, #4
	bcc	Loop1
c00082f0:	3afffffa 	bcc	c00082e0 <Loop1>

c00082f4 <Lbignum>:
Lbignum:
	@ For very big divisors, we must shift it a bit at a time, or
	@ we will be in danger of overflowing.
	cmp	divisor, #0x80000000
c00082f4:	e3510102 	cmp	r1, #-2147483648	; 0x80000000
	cmpcc	divisor, dividend
c00082f8:	31510000 	cmpcc	r1, r0
	movcc	divisor, divisor, lsl #1
c00082fc:	31a01081 	lslcc	r1, r1, #1
	movcc	curbit, curbit, lsl #1
c0008300:	31a03083 	lslcc	r3, r3, #1
	bcc	Lbignum
c0008304:	3afffffa 	bcc	c00082f4 <Lbignum>

c0008308 <Loop3>:
Loop3:
	@ Test for possible subtractions, and note which bits
	@ are done in the result.  On the final pass, this may subtract
	@ too much from the dividend, but the result will be ok, since the
	@ "bit" will have been shifted out at the bottom.
	cmp	dividend, divisor
c0008308:	e1500001 	cmp	r0, r1
	subcs	dividend, dividend, divisor
c000830c:	20400001 	subcs	r0, r0, r1
	orrcs	result, result, curbit
c0008310:	21822003 	orrcs	r2, r2, r3
	cmp	dividend, divisor, lsr #1
c0008314:	e15000a1 	cmp	r0, r1, lsr #1
	subcs	dividend, dividend, divisor, lsr #1
c0008318:	204000a1 	subcs	r0, r0, r1, lsr #1
	orrcs	result, result, curbit, lsr #1
c000831c:	218220a3 	orrcs	r2, r2, r3, lsr #1
	cmp	dividend, divisor, lsr #2
c0008320:	e1500121 	cmp	r0, r1, lsr #2
	subcs	dividend, dividend, divisor, lsr #2
c0008324:	20400121 	subcs	r0, r0, r1, lsr #2
	orrcs	result, result, curbit, lsr #2
c0008328:	21822123 	orrcs	r2, r2, r3, lsr #2
	cmp	dividend, divisor, lsr #3
c000832c:	e15001a1 	cmp	r0, r1, lsr #3
	subcs	dividend, dividend, divisor, lsr #3
c0008330:	204001a1 	subcs	r0, r0, r1, lsr #3
	orrcs	result, result, curbit, lsr #3
c0008334:	218221a3 	orrcs	r2, r2, r3, lsr #3
	cmp	dividend, #0			@ Early termination?
c0008338:	e3500000 	cmp	r0, #0
	movnes	curbit, curbit, lsr #4		@ No, any more bits to do?
c000833c:	11b03223 	lsrsne	r3, r3, #4
	movne	divisor, divisor, lsr #4
c0008340:	11a01221 	lsrne	r1, r1, #4
	bne	Loop3
c0008344:	1affffef 	bne	c0008308 <Loop3>

c0008348 <Lgot_result>:
Lgot_result:
	mov	r0, result
c0008348:	e1a00002 	mov	r0, r2
	mov	pc, lr
c000834c:	e1a0f00e 	mov	pc, lr

c0008350 <Ldiv0>:
Ldiv0:
	str	lr, [sp, #-4]!
c0008350:	e52de004 	push	{lr}		; (str lr, [sp, #-4]!)
	@bl	 __div0       (PLT)
	mov	r0, #0			@ about as wrong as it could be
c0008354:	e3a00000 	mov	r0, #0
	ldmia	sp!, {pc}
c0008358:	e8bd8000 	ldmfd	sp!, {pc}

c000835c <__toupper>:
		c -= 'A'-'a';
	return c;
}

static inline unsigned char __toupper(unsigned char c)
{
c000835c:	e52db004 	push	{fp}		; (str fp, [sp, #-4]!)
c0008360:	e28db000 	add	fp, sp, #0
c0008364:	e24dd004 	sub	sp, sp, #4
c0008368:	e1a03000 	mov	r3, r0
c000836c:	e54b3004 	strb	r3, [fp, #-4]
	if (islower(c))
c0008370:	e55b2004 	ldrb	r2, [fp, #-4]
c0008374:	e30a34f4 	movw	r3, #42228	; 0xa4f4
c0008378:	e34c3000 	movt	r3, #49152	; 0xc000
c000837c:	e7d33002 	ldrb	r3, [r3, r2]
c0008380:	e2033002 	and	r3, r3, #2
c0008384:	e3530000 	cmp	r3, #0
c0008388:	0a000002 	beq	c0008398 <__toupper+0x3c>
		c -= 'a'-'A';
c000838c:	e55b3004 	ldrb	r3, [fp, #-4]
c0008390:	e2433020 	sub	r3, r3, #32
c0008394:	e54b3004 	strb	r3, [fp, #-4]
	return c;
c0008398:	e55b3004 	ldrb	r3, [fp, #-4]
}
c000839c:	e1a00003 	mov	r0, r3
c00083a0:	e28bd000 	add	sp, fp, #0
c00083a4:	e49db004 	pop	{fp}		; (ldr fp, [sp], #4)
c00083a8:	e12fff1e 	bx	lr

c00083ac <simple_strtoul>:
#include <ctype.h>
#include "uart.h"
#define size_t unsigned int

unsigned long simple_strtoul(const char *cp,char **endp,unsigned int base)
{
c00083ac:	e92d4800 	push	{fp, lr}
c00083b0:	e28db004 	add	fp, sp, #4
c00083b4:	e24dd014 	sub	sp, sp, #20
c00083b8:	e50b0010 	str	r0, [fp, #-16]
c00083bc:	e50b1014 	str	r1, [fp, #-20]	; 0xffffffec
c00083c0:	e50b2018 	str	r2, [fp, #-24]	; 0xffffffe8
	unsigned long result = 0,value;
c00083c4:	e3a03000 	mov	r3, #0
c00083c8:	e50b3008 	str	r3, [fp, #-8]

	if (*cp == '0') {
c00083cc:	e51b3010 	ldr	r3, [fp, #-16]
c00083d0:	e5d33000 	ldrb	r3, [r3]
c00083d4:	e3530030 	cmp	r3, #48	; 0x30
c00083d8:	1a00001a 	bne	c0008448 <simple_strtoul+0x9c>
		cp++;
c00083dc:	e51b3010 	ldr	r3, [fp, #-16]
c00083e0:	e2833001 	add	r3, r3, #1
c00083e4:	e50b3010 	str	r3, [fp, #-16]
		if ((*cp == 'x') && isxdigit(cp[1])) {
c00083e8:	e51b3010 	ldr	r3, [fp, #-16]
c00083ec:	e5d33000 	ldrb	r3, [r3]
c00083f0:	e3530078 	cmp	r3, #120	; 0x78
c00083f4:	1a00000e 	bne	c0008434 <simple_strtoul+0x88>
c00083f8:	e51b3010 	ldr	r3, [fp, #-16]
c00083fc:	e2833001 	add	r3, r3, #1
c0008400:	e5d33000 	ldrb	r3, [r3]
c0008404:	e1a02003 	mov	r2, r3
c0008408:	e30a34f4 	movw	r3, #42228	; 0xa4f4
c000840c:	e34c3000 	movt	r3, #49152	; 0xc000
c0008410:	e7d33002 	ldrb	r3, [r3, r2]
c0008414:	e2033044 	and	r3, r3, #68	; 0x44
c0008418:	e3530000 	cmp	r3, #0
c000841c:	0a000004 	beq	c0008434 <simple_strtoul+0x88>
			base = 16;
c0008420:	e3a03010 	mov	r3, #16
c0008424:	e50b3018 	str	r3, [fp, #-24]	; 0xffffffe8
			cp++;
c0008428:	e51b3010 	ldr	r3, [fp, #-16]
c000842c:	e2833001 	add	r3, r3, #1
c0008430:	e50b3010 	str	r3, [fp, #-16]
		}
		if (!base) {
c0008434:	e51b3018 	ldr	r3, [fp, #-24]	; 0xffffffe8
c0008438:	e3530000 	cmp	r3, #0
c000843c:	1a000001 	bne	c0008448 <simple_strtoul+0x9c>
			base = 8;
c0008440:	e3a03008 	mov	r3, #8
c0008444:	e50b3018 	str	r3, [fp, #-24]	; 0xffffffe8
		}
	}
	if (!base) {
c0008448:	e51b3018 	ldr	r3, [fp, #-24]	; 0xffffffe8
c000844c:	e3530000 	cmp	r3, #0
c0008450:	1a00000b 	bne	c0008484 <simple_strtoul+0xd8>
		base = 10;
c0008454:	e3a0300a 	mov	r3, #10
c0008458:	e50b3018 	str	r3, [fp, #-24]	; 0xffffffe8
	}
	while (isxdigit(*cp) && (value = isdigit(*cp) ? *cp-'0' : (islower(*cp)
c000845c:	ea000008 	b	c0008484 <simple_strtoul+0xd8>
	    ? toupper(*cp) : *cp)-'A'+10) < base) {
		result = result*base + value;
c0008460:	e51b3008 	ldr	r3, [fp, #-8]
c0008464:	e51b2018 	ldr	r2, [fp, #-24]	; 0xffffffe8
c0008468:	e0030392 	mul	r3, r2, r3
c000846c:	e51b200c 	ldr	r2, [fp, #-12]
c0008470:	e0823003 	add	r3, r2, r3
c0008474:	e50b3008 	str	r3, [fp, #-8]
		cp++;
c0008478:	e51b3010 	ldr	r3, [fp, #-16]
c000847c:	e2833001 	add	r3, r3, #1
c0008480:	e50b3010 	str	r3, [fp, #-16]
	while (isxdigit(*cp) && (value = isdigit(*cp) ? *cp-'0' : (islower(*cp)
c0008484:	e51b3010 	ldr	r3, [fp, #-16]
c0008488:	e5d33000 	ldrb	r3, [r3]
c000848c:	e1a02003 	mov	r2, r3
c0008490:	e30a34f4 	movw	r3, #42228	; 0xa4f4
c0008494:	e34c3000 	movt	r3, #49152	; 0xc000
c0008498:	e7d33002 	ldrb	r3, [r3, r2]
c000849c:	e2033044 	and	r3, r3, #68	; 0x44
c00084a0:	e3530000 	cmp	r3, #0
c00084a4:	0a000024 	beq	c000853c <simple_strtoul+0x190>
c00084a8:	e51b3010 	ldr	r3, [fp, #-16]
c00084ac:	e5d33000 	ldrb	r3, [r3]
c00084b0:	e1a02003 	mov	r2, r3
c00084b4:	e30a34f4 	movw	r3, #42228	; 0xa4f4
c00084b8:	e34c3000 	movt	r3, #49152	; 0xc000
c00084bc:	e7d33002 	ldrb	r3, [r3, r2]
c00084c0:	e2033004 	and	r3, r3, #4
c00084c4:	e3530000 	cmp	r3, #0
c00084c8:	0a000003 	beq	c00084dc <simple_strtoul+0x130>
c00084cc:	e51b3010 	ldr	r3, [fp, #-16]
c00084d0:	e5d33000 	ldrb	r3, [r3]
c00084d4:	e2433030 	sub	r3, r3, #48	; 0x30
c00084d8:	ea000012 	b	c0008528 <simple_strtoul+0x17c>
c00084dc:	e51b3010 	ldr	r3, [fp, #-16]
c00084e0:	e5d33000 	ldrb	r3, [r3]
c00084e4:	e1a02003 	mov	r2, r3
c00084e8:	e30a34f4 	movw	r3, #42228	; 0xa4f4
c00084ec:	e34c3000 	movt	r3, #49152	; 0xc000
c00084f0:	e7d33002 	ldrb	r3, [r3, r2]
c00084f4:	e2033002 	and	r3, r3, #2
c00084f8:	e3530000 	cmp	r3, #0
c00084fc:	0a000006 	beq	c000851c <simple_strtoul+0x170>
	    ? toupper(*cp) : *cp)-'A'+10) < base) {
c0008500:	e51b3010 	ldr	r3, [fp, #-16]
c0008504:	e5d33000 	ldrb	r3, [r3]
c0008508:	e1a00003 	mov	r0, r3
c000850c:	ebffff92 	bl	c000835c <__toupper>
c0008510:	e1a03000 	mov	r3, r0
c0008514:	e2433037 	sub	r3, r3, #55	; 0x37
c0008518:	ea000002 	b	c0008528 <simple_strtoul+0x17c>
c000851c:	e51b3010 	ldr	r3, [fp, #-16]
c0008520:	e5d33000 	ldrb	r3, [r3]
c0008524:	e2433037 	sub	r3, r3, #55	; 0x37
	while (isxdigit(*cp) && (value = isdigit(*cp) ? *cp-'0' : (islower(*cp)
c0008528:	e50b300c 	str	r3, [fp, #-12]
c000852c:	e51b200c 	ldr	r2, [fp, #-12]
c0008530:	e51b3018 	ldr	r3, [fp, #-24]	; 0xffffffe8
c0008534:	e1520003 	cmp	r2, r3
c0008538:	3affffc8 	bcc	c0008460 <simple_strtoul+0xb4>
	}
	if (endp)
c000853c:	e51b3014 	ldr	r3, [fp, #-20]	; 0xffffffec
c0008540:	e3530000 	cmp	r3, #0
c0008544:	0a000002 	beq	c0008554 <simple_strtoul+0x1a8>
		*endp = (char *)cp;
c0008548:	e51b3014 	ldr	r3, [fp, #-20]	; 0xffffffec
c000854c:	e51b2010 	ldr	r2, [fp, #-16]
c0008550:	e5832000 	str	r2, [r3]
	return result;
c0008554:	e51b3008 	ldr	r3, [fp, #-8]
}
c0008558:	e1a00003 	mov	r0, r3
c000855c:	e24bd004 	sub	sp, fp, #4
c0008560:	e8bd8800 	pop	{fp, pc}

c0008564 <simple_strtol>:

long simple_strtol(const char *cp,char **endp,unsigned int base)
{
c0008564:	e92d4800 	push	{fp, lr}
c0008568:	e28db004 	add	fp, sp, #4
c000856c:	e24dd00c 	sub	sp, sp, #12
c0008570:	e50b0008 	str	r0, [fp, #-8]
c0008574:	e50b100c 	str	r1, [fp, #-12]
c0008578:	e50b2010 	str	r2, [fp, #-16]
	if(*cp=='-')
c000857c:	e51b3008 	ldr	r3, [fp, #-8]
c0008580:	e5d33000 	ldrb	r3, [r3]
c0008584:	e353002d 	cmp	r3, #45	; 0x2d
c0008588:	1a000008 	bne	c00085b0 <simple_strtol+0x4c>
		return -simple_strtoul(cp+1,endp,base);
c000858c:	e51b3008 	ldr	r3, [fp, #-8]
c0008590:	e2833001 	add	r3, r3, #1
c0008594:	e51b2010 	ldr	r2, [fp, #-16]
c0008598:	e51b100c 	ldr	r1, [fp, #-12]
c000859c:	e1a00003 	mov	r0, r3
c00085a0:	ebffff81 	bl	c00083ac <simple_strtoul>
c00085a4:	e1a03000 	mov	r3, r0
c00085a8:	e2633000 	rsb	r3, r3, #0
c00085ac:	ea000004 	b	c00085c4 <simple_strtol+0x60>
	return simple_strtoul(cp,endp,base);
c00085b0:	e51b2010 	ldr	r2, [fp, #-16]
c00085b4:	e51b100c 	ldr	r1, [fp, #-12]
c00085b8:	e51b0008 	ldr	r0, [fp, #-8]
c00085bc:	ebffff7a 	bl	c00083ac <simple_strtoul>
c00085c0:	e1a03000 	mov	r3, r0
}
c00085c4:	e1a00003 	mov	r0, r3
c00085c8:	e24bd004 	sub	sp, fp, #4
c00085cc:	e8bd8800 	pop	{fp, pc}

c00085d0 <skip_atoi>:

/* we use this so that we can do without the ctype library */
#define is_digit(c)	((c) >= '0' && (c) <= '9')

static int skip_atoi(const char **s)
{
c00085d0:	e52db004 	push	{fp}		; (str fp, [sp, #-4]!)
c00085d4:	e28db000 	add	fp, sp, #0
c00085d8:	e24dd008 	sub	sp, sp, #8
c00085dc:	e50b0008 	str	r0, [fp, #-8]
	int i=0;
c00085e0:	e3a03000 	mov	r3, #0
c00085e4:	e50b3004 	str	r3, [fp, #-4]

	while (is_digit(**s))
c00085e8:	ea00000e 	b	c0008628 <skip_atoi+0x58>
		i = i*10 + *((*s)++) - '0';
c00085ec:	e51b2004 	ldr	r2, [fp, #-4]
c00085f0:	e1a03002 	mov	r3, r2
c00085f4:	e1a03103 	lsl	r3, r3, #2
c00085f8:	e0833002 	add	r3, r3, r2
c00085fc:	e1a03083 	lsl	r3, r3, #1
c0008600:	e1a00003 	mov	r0, r3
c0008604:	e51b3008 	ldr	r3, [fp, #-8]
c0008608:	e5933000 	ldr	r3, [r3]
c000860c:	e2831001 	add	r1, r3, #1
c0008610:	e51b2008 	ldr	r2, [fp, #-8]
c0008614:	e5821000 	str	r1, [r2]
c0008618:	e5d33000 	ldrb	r3, [r3]
c000861c:	e0803003 	add	r3, r0, r3
c0008620:	e2433030 	sub	r3, r3, #48	; 0x30
c0008624:	e50b3004 	str	r3, [fp, #-4]
	while (is_digit(**s))
c0008628:	e51b3008 	ldr	r3, [fp, #-8]
c000862c:	e5933000 	ldr	r3, [r3]
c0008630:	e5d33000 	ldrb	r3, [r3]
c0008634:	e353002f 	cmp	r3, #47	; 0x2f
c0008638:	9a000004 	bls	c0008650 <skip_atoi+0x80>
c000863c:	e51b3008 	ldr	r3, [fp, #-8]
c0008640:	e5933000 	ldr	r3, [r3]
c0008644:	e5d33000 	ldrb	r3, [r3]
c0008648:	e3530039 	cmp	r3, #57	; 0x39
c000864c:	9affffe6 	bls	c00085ec <skip_atoi+0x1c>
	return i;
c0008650:	e51b3004 	ldr	r3, [fp, #-4]
}
c0008654:	e1a00003 	mov	r0, r3
c0008658:	e28bd000 	add	sp, fp, #0
c000865c:	e49db004 	pop	{fp}		; (ldr fp, [sp], #4)
c0008660:	e12fff1e 	bx	lr

c0008664 <number>:
#ifdef CFG_64BIT_VSPRINTF
static char * number(char * str, long long num, unsigned int base, int size, int precision ,int type)
#else
static char * number(char * str, long num, unsigned int base, int size, int precision ,int type)
#endif
{
c0008664:	e92d4800 	push	{fp, lr}
c0008668:	e28db004 	add	fp, sp, #4
c000866c:	e24dd068 	sub	sp, sp, #104	; 0x68
c0008670:	e50b0060 	str	r0, [fp, #-96]	; 0xffffffa0
c0008674:	e50b1064 	str	r1, [fp, #-100]	; 0xffffff9c
c0008678:	e50b2068 	str	r2, [fp, #-104]	; 0xffffff98
c000867c:	e50b306c 	str	r3, [fp, #-108]	; 0xffffff94
	char c,sign,tmp[66];
	const char *digits="0123456789abcdefghijklmnopqrstuvwxyz";
c0008680:	e3093c9c 	movw	r3, #40092	; 0x9c9c
c0008684:	e34c3000 	movt	r3, #49152	; 0xc000
c0008688:	e50b300c 	str	r3, [fp, #-12]
	int i;

	if (type & LARGE)
c000868c:	e59b3008 	ldr	r3, [fp, #8]
c0008690:	e2033040 	and	r3, r3, #64	; 0x40
c0008694:	e3530000 	cmp	r3, #0
c0008698:	0a000002 	beq	c00086a8 <number+0x44>
		digits = "0123456789ABCDEFGHIJKLMNOPQRSTUVWXYZ";
c000869c:	e3093cc4 	movw	r3, #40132	; 0x9cc4
c00086a0:	e34c3000 	movt	r3, #49152	; 0xc000
c00086a4:	e50b300c 	str	r3, [fp, #-12]
	if (type & LEFT)
c00086a8:	e59b3008 	ldr	r3, [fp, #8]
c00086ac:	e2033010 	and	r3, r3, #16
c00086b0:	e3530000 	cmp	r3, #0
c00086b4:	0a000002 	beq	c00086c4 <number+0x60>
		type &= ~ZEROPAD;
c00086b8:	e59b3008 	ldr	r3, [fp, #8]
c00086bc:	e3c33001 	bic	r3, r3, #1
c00086c0:	e58b3008 	str	r3, [fp, #8]
	if (base < 2 || base > 36)
c00086c4:	e51b3068 	ldr	r3, [fp, #-104]	; 0xffffff98
c00086c8:	e3530001 	cmp	r3, #1
c00086cc:	9a000002 	bls	c00086dc <number+0x78>
c00086d0:	e51b3068 	ldr	r3, [fp, #-104]	; 0xffffff98
c00086d4:	e3530024 	cmp	r3, #36	; 0x24
c00086d8:	9a000001 	bls	c00086e4 <number+0x80>
		return 0;
c00086dc:	e3a03000 	mov	r3, #0
c00086e0:	ea0000d5 	b	c0008a3c <number+0x3d8>
	c = (type & ZEROPAD) ? '0' : ' ';
c00086e4:	e59b3008 	ldr	r3, [fp, #8]
c00086e8:	e2033001 	and	r3, r3, #1
c00086ec:	e3530000 	cmp	r3, #0
c00086f0:	0a000001 	beq	c00086fc <number+0x98>
c00086f4:	e3a03030 	mov	r3, #48	; 0x30
c00086f8:	ea000000 	b	c0008700 <number+0x9c>
c00086fc:	e3a03020 	mov	r3, #32
c0008700:	e54b3011 	strb	r3, [fp, #-17]	; 0xffffffef
	sign = 0;
c0008704:	e3a03000 	mov	r3, #0
c0008708:	e54b3005 	strb	r3, [fp, #-5]
	if (type & SIGN) {
c000870c:	e59b3008 	ldr	r3, [fp, #8]
c0008710:	e2033002 	and	r3, r3, #2
c0008714:	e3530000 	cmp	r3, #0
c0008718:	0a00001e 	beq	c0008798 <number+0x134>
		if (num < 0) {
c000871c:	e51b3064 	ldr	r3, [fp, #-100]	; 0xffffff9c
c0008720:	e3530000 	cmp	r3, #0
c0008724:	aa000008 	bge	c000874c <number+0xe8>
			sign = '-';
c0008728:	e3a0302d 	mov	r3, #45	; 0x2d
c000872c:	e54b3005 	strb	r3, [fp, #-5]
			num = -num;
c0008730:	e51b3064 	ldr	r3, [fp, #-100]	; 0xffffff9c
c0008734:	e2633000 	rsb	r3, r3, #0
c0008738:	e50b3064 	str	r3, [fp, #-100]	; 0xffffff9c
			size--;
c000873c:	e51b306c 	ldr	r3, [fp, #-108]	; 0xffffff94
c0008740:	e2433001 	sub	r3, r3, #1
c0008744:	e50b306c 	str	r3, [fp, #-108]	; 0xffffff94
c0008748:	ea000012 	b	c0008798 <number+0x134>
		} else if (type & PLUS) {
c000874c:	e59b3008 	ldr	r3, [fp, #8]
c0008750:	e2033004 	and	r3, r3, #4
c0008754:	e3530000 	cmp	r3, #0
c0008758:	0a000005 	beq	c0008774 <number+0x110>
			sign = '+';
c000875c:	e3a0302b 	mov	r3, #43	; 0x2b
c0008760:	e54b3005 	strb	r3, [fp, #-5]
			size--;
c0008764:	e51b306c 	ldr	r3, [fp, #-108]	; 0xffffff94
c0008768:	e2433001 	sub	r3, r3, #1
c000876c:	e50b306c 	str	r3, [fp, #-108]	; 0xffffff94
c0008770:	ea000008 	b	c0008798 <number+0x134>
		} else if (type & SPACE) {
c0008774:	e59b3008 	ldr	r3, [fp, #8]
c0008778:	e2033008 	and	r3, r3, #8
c000877c:	e3530000 	cmp	r3, #0
c0008780:	0a000004 	beq	c0008798 <number+0x134>
			sign = ' ';
c0008784:	e3a03020 	mov	r3, #32
c0008788:	e54b3005 	strb	r3, [fp, #-5]
			size--;
c000878c:	e51b306c 	ldr	r3, [fp, #-108]	; 0xffffff94
c0008790:	e2433001 	sub	r3, r3, #1
c0008794:	e50b306c 	str	r3, [fp, #-108]	; 0xffffff94
		}
	}
	if (type & SPECIAL) {
c0008798:	e59b3008 	ldr	r3, [fp, #8]
c000879c:	e2033020 	and	r3, r3, #32
c00087a0:	e3530000 	cmp	r3, #0
c00087a4:	0a00000c 	beq	c00087dc <number+0x178>
		if (base == 16)
c00087a8:	e51b3068 	ldr	r3, [fp, #-104]	; 0xffffff98
c00087ac:	e3530010 	cmp	r3, #16
c00087b0:	1a000003 	bne	c00087c4 <number+0x160>
			size -= 2;
c00087b4:	e51b306c 	ldr	r3, [fp, #-108]	; 0xffffff94
c00087b8:	e2433002 	sub	r3, r3, #2
c00087bc:	e50b306c 	str	r3, [fp, #-108]	; 0xffffff94
c00087c0:	ea000005 	b	c00087dc <number+0x178>
		else if (base == 8)
c00087c4:	e51b3068 	ldr	r3, [fp, #-104]	; 0xffffff98
c00087c8:	e3530008 	cmp	r3, #8
c00087cc:	1a000002 	bne	c00087dc <number+0x178>
			size--;
c00087d0:	e51b306c 	ldr	r3, [fp, #-108]	; 0xffffff94
c00087d4:	e2433001 	sub	r3, r3, #1
c00087d8:	e50b306c 	str	r3, [fp, #-108]	; 0xffffff94
	}
	i = 0;
c00087dc:	e3a03000 	mov	r3, #0
c00087e0:	e50b3010 	str	r3, [fp, #-16]
	if (num == 0)
c00087e4:	e51b3064 	ldr	r3, [fp, #-100]	; 0xffffff9c
c00087e8:	e3530000 	cmp	r3, #0
c00087ec:	1a000022 	bne	c000887c <number+0x218>
		tmp[i++]='0';
c00087f0:	e51b3010 	ldr	r3, [fp, #-16]
c00087f4:	e2832001 	add	r2, r3, #1
c00087f8:	e50b2010 	str	r2, [fp, #-16]
c00087fc:	e24b2004 	sub	r2, fp, #4
c0008800:	e0823003 	add	r3, r2, r3
c0008804:	e3a02030 	mov	r2, #48	; 0x30
c0008808:	e5432058 	strb	r2, [r3, #-88]	; 0xffffffa8
c000880c:	ea00001d 	b	c0008888 <number+0x224>
	else while (num != 0)
	if (i > precision)
c0008810:	e51b2010 	ldr	r2, [fp, #-16]
c0008814:	e59b3004 	ldr	r3, [fp, #4]
c0008818:	e1520003 	cmp	r2, r3
c000881c:	da000016 	ble	c000887c <number+0x218>
		tmp[i++] = digits[do_div(num,base)];
c0008820:	e51b3064 	ldr	r3, [fp, #-100]	; 0xffffff9c
c0008824:	e51b1068 	ldr	r1, [fp, #-104]	; 0xffffff98
c0008828:	e1a00003 	mov	r0, r3
c000882c:	ebfffe79 	bl	c0008218 <__umodsi3>
c0008830:	e1a03000 	mov	r3, r0
c0008834:	e50b3018 	str	r3, [fp, #-24]	; 0xffffffe8
c0008838:	e51b3064 	ldr	r3, [fp, #-100]	; 0xffffff9c
c000883c:	e51b1068 	ldr	r1, [fp, #-104]	; 0xffffff98
c0008840:	e1a00003 	mov	r0, r3
c0008844:	ebfffe9f 	bl	c00082c8 <__udivsi3>
c0008848:	e1a03000 	mov	r3, r0
c000884c:	e50b3064 	str	r3, [fp, #-100]	; 0xffffff9c
c0008850:	e51b3018 	ldr	r3, [fp, #-24]	; 0xffffffe8
c0008854:	e1a02003 	mov	r2, r3
c0008858:	e51b300c 	ldr	r3, [fp, #-12]
c000885c:	e0832002 	add	r2, r3, r2
c0008860:	e51b3010 	ldr	r3, [fp, #-16]
c0008864:	e2831001 	add	r1, r3, #1
c0008868:	e50b1010 	str	r1, [fp, #-16]
c000886c:	e5d22000 	ldrb	r2, [r2]
c0008870:	e24b1004 	sub	r1, fp, #4
c0008874:	e0813003 	add	r3, r1, r3
c0008878:	e5432058 	strb	r2, [r3, #-88]	; 0xffffffa8
	else while (num != 0)
c000887c:	e51b3064 	ldr	r3, [fp, #-100]	; 0xffffff9c
c0008880:	e3530000 	cmp	r3, #0
c0008884:	1affffe1 	bne	c0008810 <number+0x1ac>
	precision = i;
c0008888:	e51b3010 	ldr	r3, [fp, #-16]
c000888c:	e58b3004 	str	r3, [fp, #4]
	size -= precision;
c0008890:	e51b206c 	ldr	r2, [fp, #-108]	; 0xffffff94
c0008894:	e59b3004 	ldr	r3, [fp, #4]
c0008898:	e0423003 	sub	r3, r2, r3
c000889c:	e50b306c 	str	r3, [fp, #-108]	; 0xffffff94
	if (!(type&(ZEROPAD+LEFT)))
c00088a0:	e59b3008 	ldr	r3, [fp, #8]
c00088a4:	e2033011 	and	r3, r3, #17
c00088a8:	e3530000 	cmp	r3, #0
c00088ac:	1a00000a 	bne	c00088dc <number+0x278>
		while(size-->0)
c00088b0:	ea000004 	b	c00088c8 <number+0x264>
			*str++ = ' ';
c00088b4:	e51b3060 	ldr	r3, [fp, #-96]	; 0xffffffa0
c00088b8:	e2832001 	add	r2, r3, #1
c00088bc:	e50b2060 	str	r2, [fp, #-96]	; 0xffffffa0
c00088c0:	e3a02020 	mov	r2, #32
c00088c4:	e5c32000 	strb	r2, [r3]
		while(size-->0)
c00088c8:	e51b306c 	ldr	r3, [fp, #-108]	; 0xffffff94
c00088cc:	e2432001 	sub	r2, r3, #1
c00088d0:	e50b206c 	str	r2, [fp, #-108]	; 0xffffff94
c00088d4:	e3530000 	cmp	r3, #0
c00088d8:	cafffff5 	bgt	c00088b4 <number+0x250>
	if (sign)
c00088dc:	e55b3005 	ldrb	r3, [fp, #-5]
c00088e0:	e3530000 	cmp	r3, #0
c00088e4:	0a000004 	beq	c00088fc <number+0x298>
		*str++ = sign;
c00088e8:	e51b3060 	ldr	r3, [fp, #-96]	; 0xffffffa0
c00088ec:	e2832001 	add	r2, r3, #1
c00088f0:	e50b2060 	str	r2, [fp, #-96]	; 0xffffffa0
c00088f4:	e55b2005 	ldrb	r2, [fp, #-5]
c00088f8:	e5c32000 	strb	r2, [r3]
	if (type & SPECIAL) {
c00088fc:	e59b3008 	ldr	r3, [fp, #8]
c0008900:	e2033020 	and	r3, r3, #32
c0008904:	e3530000 	cmp	r3, #0
c0008908:	0a000016 	beq	c0008968 <number+0x304>
		if (base==8)
c000890c:	e51b3068 	ldr	r3, [fp, #-104]	; 0xffffff98
c0008910:	e3530008 	cmp	r3, #8
c0008914:	1a000005 	bne	c0008930 <number+0x2cc>
			*str++ = '0';
c0008918:	e51b3060 	ldr	r3, [fp, #-96]	; 0xffffffa0
c000891c:	e2832001 	add	r2, r3, #1
c0008920:	e50b2060 	str	r2, [fp, #-96]	; 0xffffffa0
c0008924:	e3a02030 	mov	r2, #48	; 0x30
c0008928:	e5c32000 	strb	r2, [r3]
c000892c:	ea00000d 	b	c0008968 <number+0x304>
		else if (base==16) {
c0008930:	e51b3068 	ldr	r3, [fp, #-104]	; 0xffffff98
c0008934:	e3530010 	cmp	r3, #16
c0008938:	1a00000a 	bne	c0008968 <number+0x304>
			*str++ = '0';
c000893c:	e51b3060 	ldr	r3, [fp, #-96]	; 0xffffffa0
c0008940:	e2832001 	add	r2, r3, #1
c0008944:	e50b2060 	str	r2, [fp, #-96]	; 0xffffffa0
c0008948:	e3a02030 	mov	r2, #48	; 0x30
c000894c:	e5c32000 	strb	r2, [r3]
			*str++ = digits[33];
c0008950:	e51b3060 	ldr	r3, [fp, #-96]	; 0xffffffa0
c0008954:	e2832001 	add	r2, r3, #1
c0008958:	e50b2060 	str	r2, [fp, #-96]	; 0xffffffa0
c000895c:	e51b200c 	ldr	r2, [fp, #-12]
c0008960:	e5d22021 	ldrb	r2, [r2, #33]	; 0x21
c0008964:	e5c32000 	strb	r2, [r3]
		}
	}
	if (!(type & LEFT))
c0008968:	e59b3008 	ldr	r3, [fp, #8]
c000896c:	e2033010 	and	r3, r3, #16
c0008970:	e3530000 	cmp	r3, #0
c0008974:	1a000010 	bne	c00089bc <number+0x358>
		while (size-- > 0)
c0008978:	ea000004 	b	c0008990 <number+0x32c>
			*str++ = c;
c000897c:	e51b3060 	ldr	r3, [fp, #-96]	; 0xffffffa0
c0008980:	e2832001 	add	r2, r3, #1
c0008984:	e50b2060 	str	r2, [fp, #-96]	; 0xffffffa0
c0008988:	e55b2011 	ldrb	r2, [fp, #-17]	; 0xffffffef
c000898c:	e5c32000 	strb	r2, [r3]
		while (size-- > 0)
c0008990:	e51b306c 	ldr	r3, [fp, #-108]	; 0xffffff94
c0008994:	e2432001 	sub	r2, r3, #1
c0008998:	e50b206c 	str	r2, [fp, #-108]	; 0xffffff94
c000899c:	e3530000 	cmp	r3, #0
c00089a0:	cafffff5 	bgt	c000897c <number+0x318>
	while (i < precision--)
c00089a4:	ea000004 	b	c00089bc <number+0x358>
		*str++ = '0';
c00089a8:	e51b3060 	ldr	r3, [fp, #-96]	; 0xffffffa0
c00089ac:	e2832001 	add	r2, r3, #1
c00089b0:	e50b2060 	str	r2, [fp, #-96]	; 0xffffffa0
c00089b4:	e3a02030 	mov	r2, #48	; 0x30
c00089b8:	e5c32000 	strb	r2, [r3]
	while (i < precision--)
c00089bc:	e59b3004 	ldr	r3, [fp, #4]
c00089c0:	e2432001 	sub	r2, r3, #1
c00089c4:	e58b2004 	str	r2, [fp, #4]
c00089c8:	e51b2010 	ldr	r2, [fp, #-16]
c00089cc:	e1520003 	cmp	r2, r3
c00089d0:	bafffff4 	blt	c00089a8 <number+0x344>
	while (i-- > 0)
c00089d4:	ea000007 	b	c00089f8 <number+0x394>
		*str++ = tmp[i];
c00089d8:	e51b3060 	ldr	r3, [fp, #-96]	; 0xffffffa0
c00089dc:	e2832001 	add	r2, r3, #1
c00089e0:	e50b2060 	str	r2, [fp, #-96]	; 0xffffffa0
c00089e4:	e24b105c 	sub	r1, fp, #92	; 0x5c
c00089e8:	e51b2010 	ldr	r2, [fp, #-16]
c00089ec:	e0812002 	add	r2, r1, r2
c00089f0:	e5d22000 	ldrb	r2, [r2]
c00089f4:	e5c32000 	strb	r2, [r3]
	while (i-- > 0)
c00089f8:	e51b3010 	ldr	r3, [fp, #-16]
c00089fc:	e2432001 	sub	r2, r3, #1
c0008a00:	e50b2010 	str	r2, [fp, #-16]
c0008a04:	e3530000 	cmp	r3, #0
c0008a08:	cafffff2 	bgt	c00089d8 <number+0x374>
	while (size-- > 0)
c0008a0c:	ea000004 	b	c0008a24 <number+0x3c0>
		*str++ = ' ';
c0008a10:	e51b3060 	ldr	r3, [fp, #-96]	; 0xffffffa0
c0008a14:	e2832001 	add	r2, r3, #1
c0008a18:	e50b2060 	str	r2, [fp, #-96]	; 0xffffffa0
c0008a1c:	e3a02020 	mov	r2, #32
c0008a20:	e5c32000 	strb	r2, [r3]
	while (size-- > 0)
c0008a24:	e51b306c 	ldr	r3, [fp, #-108]	; 0xffffff94
c0008a28:	e2432001 	sub	r2, r3, #1
c0008a2c:	e50b206c 	str	r2, [fp, #-108]	; 0xffffff94
c0008a30:	e3530000 	cmp	r3, #0
c0008a34:	cafffff5 	bgt	c0008a10 <number+0x3ac>
	return str;
c0008a38:	e51b3060 	ldr	r3, [fp, #-96]	; 0xffffffa0
}
c0008a3c:	e1a00003 	mov	r0, r3
c0008a40:	e24bd004 	sub	sp, fp, #4
c0008a44:	e8bd8800 	pop	{fp, pc}

c0008a48 <strnlen>:

/* Forward decl. needed for IP address printing stuff... */
int sprintf(char * buf, const char *fmt, ...);
size_t strnlen(const char * s, size_t count)
{
c0008a48:	e52db004 	push	{fp}		; (str fp, [sp, #-4]!)
c0008a4c:	e28db000 	add	fp, sp, #0
c0008a50:	e24dd00c 	sub	sp, sp, #12
c0008a54:	e50b0008 	str	r0, [fp, #-8]
c0008a58:	e50b100c 	str	r1, [fp, #-12]
	const char *sc;

	for (sc = s; count-- && *sc != '\0'; ++sc)
c0008a5c:	e51b3008 	ldr	r3, [fp, #-8]
c0008a60:	e50b3004 	str	r3, [fp, #-4]
c0008a64:	ea000002 	b	c0008a74 <strnlen+0x2c>
c0008a68:	e51b3004 	ldr	r3, [fp, #-4]
c0008a6c:	e2833001 	add	r3, r3, #1
c0008a70:	e50b3004 	str	r3, [fp, #-4]
c0008a74:	e51b300c 	ldr	r3, [fp, #-12]
c0008a78:	e2432001 	sub	r2, r3, #1
c0008a7c:	e50b200c 	str	r2, [fp, #-12]
c0008a80:	e3530000 	cmp	r3, #0
c0008a84:	0a000003 	beq	c0008a98 <strnlen+0x50>
c0008a88:	e51b3004 	ldr	r3, [fp, #-4]
c0008a8c:	e5d33000 	ldrb	r3, [r3]
c0008a90:	e3530000 	cmp	r3, #0
c0008a94:	1afffff3 	bne	c0008a68 <strnlen+0x20>
		/* nothing */;
	return sc - s;
c0008a98:	e51b2004 	ldr	r2, [fp, #-4]
c0008a9c:	e51b3008 	ldr	r3, [fp, #-8]
c0008aa0:	e0423003 	sub	r3, r2, r3
}
c0008aa4:	e1a00003 	mov	r0, r3
c0008aa8:	e28bd000 	add	sp, fp, #0
c0008aac:	e49db004 	pop	{fp}		; (ldr fp, [sp], #4)
c0008ab0:	e12fff1e 	bx	lr

c0008ab4 <vsprintf>:
int vsprintf(char *buf, const char *fmt, va_list args)
{
c0008ab4:	e92d4800 	push	{fp, lr}
c0008ab8:	e28db004 	add	fp, sp, #4
c0008abc:	e24dd044 	sub	sp, sp, #68	; 0x44
c0008ac0:	e50b0038 	str	r0, [fp, #-56]	; 0xffffffc8
c0008ac4:	e50b103c 	str	r1, [fp, #-60]	; 0xffffffc4
c0008ac8:	e50b2040 	str	r2, [fp, #-64]	; 0xffffffc0
	int field_width;	/* width of output field */
	int precision;		/* min. # of digits for integers; max
				   number of chars for from string */
	int qualifier;		/* 'h', 'l', or 'q' for integer fields */

	for (str=buf ; *fmt ; ++fmt) {
c0008acc:	e51b3038 	ldr	r3, [fp, #-56]	; 0xffffffc8
c0008ad0:	e50b3014 	str	r3, [fp, #-20]	; 0xffffffec
c0008ad4:	ea00021b 	b	c0009348 <vsprintf+0x894>
		if (*fmt != '%') {
c0008ad8:	e51b303c 	ldr	r3, [fp, #-60]	; 0xffffffc4
c0008adc:	e5d33000 	ldrb	r3, [r3]
c0008ae0:	e3530025 	cmp	r3, #37	; 0x25
c0008ae4:	0a000006 	beq	c0008b04 <vsprintf+0x50>
			*str++ = *fmt;
c0008ae8:	e51b203c 	ldr	r2, [fp, #-60]	; 0xffffffc4
c0008aec:	e51b3014 	ldr	r3, [fp, #-20]	; 0xffffffec
c0008af0:	e2831001 	add	r1, r3, #1
c0008af4:	e50b1014 	str	r1, [fp, #-20]	; 0xffffffec
c0008af8:	e5d22000 	ldrb	r2, [r2]
c0008afc:	e5c32000 	strb	r2, [r3]
			continue;
c0008b00:	ea00020d 	b	c000933c <vsprintf+0x888>
		}

		/* process flags */
		flags = 0;
c0008b04:	e3a03000 	mov	r3, #0
c0008b08:	e50b301c 	str	r3, [fp, #-28]	; 0xffffffe4
		repeat:
			++fmt;		/* this also skips first '%' */
c0008b0c:	e51b303c 	ldr	r3, [fp, #-60]	; 0xffffffc4
c0008b10:	e2833001 	add	r3, r3, #1
c0008b14:	e50b303c 	str	r3, [fp, #-60]	; 0xffffffc4
			switch (*fmt) {
c0008b18:	e51b303c 	ldr	r3, [fp, #-60]	; 0xffffffc4
c0008b1c:	e5d33000 	ldrb	r3, [r3]
c0008b20:	e2433020 	sub	r3, r3, #32
c0008b24:	e3530010 	cmp	r3, #16
c0008b28:	979ff103 	ldrls	pc, [pc, r3, lsl #2]
c0008b2c:	ea000024 	b	c0008bc4 <vsprintf+0x110>
c0008b30:	c0008b94 	mulgt	r0, r4, fp
c0008b34:	c0008bc4 	andgt	r8, r0, r4, asr #23
c0008b38:	c0008bc4 	andgt	r8, r0, r4, asr #23
c0008b3c:	c0008ba4 	andgt	r8, r0, r4, lsr #23
c0008b40:	c0008bc4 	andgt	r8, r0, r4, asr #23
c0008b44:	c0008bc4 	andgt	r8, r0, r4, asr #23
c0008b48:	c0008bc4 	andgt	r8, r0, r4, asr #23
c0008b4c:	c0008bc4 	andgt	r8, r0, r4, asr #23
c0008b50:	c0008bc4 	andgt	r8, r0, r4, asr #23
c0008b54:	c0008bc4 	andgt	r8, r0, r4, asr #23
c0008b58:	c0008bc4 	andgt	r8, r0, r4, asr #23
c0008b5c:	c0008b84 	andgt	r8, r0, r4, lsl #23
c0008b60:	c0008bc4 	andgt	r8, r0, r4, asr #23
c0008b64:	c0008b74 	andgt	r8, r0, r4, ror fp
c0008b68:	c0008bc4 	andgt	r8, r0, r4, asr #23
c0008b6c:	c0008bc4 	andgt	r8, r0, r4, asr #23
c0008b70:	c0008bb4 			; <UNDEFINED> instruction: 0xc0008bb4
				case '-': flags |= LEFT; goto repeat;
c0008b74:	e51b301c 	ldr	r3, [fp, #-28]	; 0xffffffe4
c0008b78:	e3833010 	orr	r3, r3, #16
c0008b7c:	e50b301c 	str	r3, [fp, #-28]	; 0xffffffe4
c0008b80:	eaffffe1 	b	c0008b0c <vsprintf+0x58>
				case '+': flags |= PLUS; goto repeat;
c0008b84:	e51b301c 	ldr	r3, [fp, #-28]	; 0xffffffe4
c0008b88:	e3833004 	orr	r3, r3, #4
c0008b8c:	e50b301c 	str	r3, [fp, #-28]	; 0xffffffe4
c0008b90:	eaffffdd 	b	c0008b0c <vsprintf+0x58>
				case ' ': flags |= SPACE; goto repeat;
c0008b94:	e51b301c 	ldr	r3, [fp, #-28]	; 0xffffffe4
c0008b98:	e3833008 	orr	r3, r3, #8
c0008b9c:	e50b301c 	str	r3, [fp, #-28]	; 0xffffffe4
c0008ba0:	eaffffd9 	b	c0008b0c <vsprintf+0x58>
				case '#': flags |= SPECIAL; goto repeat;
c0008ba4:	e51b301c 	ldr	r3, [fp, #-28]	; 0xffffffe4
c0008ba8:	e3833020 	orr	r3, r3, #32
c0008bac:	e50b301c 	str	r3, [fp, #-28]	; 0xffffffe4
c0008bb0:	eaffffd5 	b	c0008b0c <vsprintf+0x58>
				case '0': flags |= ZEROPAD; goto repeat;
c0008bb4:	e51b301c 	ldr	r3, [fp, #-28]	; 0xffffffe4
c0008bb8:	e3833001 	orr	r3, r3, #1
c0008bbc:	e50b301c 	str	r3, [fp, #-28]	; 0xffffffe4
c0008bc0:	eaffffd1 	b	c0008b0c <vsprintf+0x58>
				}

		/* get field width */
		field_width = -1;
c0008bc4:	e3e03000 	mvn	r3, #0
c0008bc8:	e50b3020 	str	r3, [fp, #-32]	; 0xffffffe0
		if (is_digit(*fmt))
c0008bcc:	e51b303c 	ldr	r3, [fp, #-60]	; 0xffffffc4
c0008bd0:	e5d33000 	ldrb	r3, [r3]
c0008bd4:	e353002f 	cmp	r3, #47	; 0x2f
c0008bd8:	9a000008 	bls	c0008c00 <vsprintf+0x14c>
c0008bdc:	e51b303c 	ldr	r3, [fp, #-60]	; 0xffffffc4
c0008be0:	e5d33000 	ldrb	r3, [r3]
c0008be4:	e3530039 	cmp	r3, #57	; 0x39
c0008be8:	8a000004 	bhi	c0008c00 <vsprintf+0x14c>
			field_width = skip_atoi(&fmt);
c0008bec:	e24b303c 	sub	r3, fp, #60	; 0x3c
c0008bf0:	e1a00003 	mov	r0, r3
c0008bf4:	ebfffe75 	bl	c00085d0 <skip_atoi>
c0008bf8:	e50b0020 	str	r0, [fp, #-32]	; 0xffffffe0
c0008bfc:	ea000014 	b	c0008c54 <vsprintf+0x1a0>
		else if (*fmt == '*') {
c0008c00:	e51b303c 	ldr	r3, [fp, #-60]	; 0xffffffc4
c0008c04:	e5d33000 	ldrb	r3, [r3]
c0008c08:	e353002a 	cmp	r3, #42	; 0x2a
c0008c0c:	1a000010 	bne	c0008c54 <vsprintf+0x1a0>
			++fmt;
c0008c10:	e51b303c 	ldr	r3, [fp, #-60]	; 0xffffffc4
c0008c14:	e2833001 	add	r3, r3, #1
c0008c18:	e50b303c 	str	r3, [fp, #-60]	; 0xffffffc4
			/* it's the next argument */
			field_width = va_arg(args, int);
c0008c1c:	e51b3040 	ldr	r3, [fp, #-64]	; 0xffffffc0
c0008c20:	e2832004 	add	r2, r3, #4
c0008c24:	e50b2040 	str	r2, [fp, #-64]	; 0xffffffc0
c0008c28:	e5933000 	ldr	r3, [r3]
c0008c2c:	e50b3020 	str	r3, [fp, #-32]	; 0xffffffe0
			if (field_width < 0) {
c0008c30:	e51b3020 	ldr	r3, [fp, #-32]	; 0xffffffe0
c0008c34:	e3530000 	cmp	r3, #0
c0008c38:	aa000005 	bge	c0008c54 <vsprintf+0x1a0>
				field_width = -field_width;
c0008c3c:	e51b3020 	ldr	r3, [fp, #-32]	; 0xffffffe0
c0008c40:	e2633000 	rsb	r3, r3, #0
c0008c44:	e50b3020 	str	r3, [fp, #-32]	; 0xffffffe0
				flags |= LEFT;
c0008c48:	e51b301c 	ldr	r3, [fp, #-28]	; 0xffffffe4
c0008c4c:	e3833010 	orr	r3, r3, #16
c0008c50:	e50b301c 	str	r3, [fp, #-28]	; 0xffffffe4
			}
		}

		/* get the precision */
		precision = -1;
c0008c54:	e3e03000 	mvn	r3, #0
c0008c58:	e50b3024 	str	r3, [fp, #-36]	; 0xffffffdc
		if (*fmt == '.') {
c0008c5c:	e51b303c 	ldr	r3, [fp, #-60]	; 0xffffffc4
c0008c60:	e5d33000 	ldrb	r3, [r3]
c0008c64:	e353002e 	cmp	r3, #46	; 0x2e
c0008c68:	1a000020 	bne	c0008cf0 <vsprintf+0x23c>
			++fmt;
c0008c6c:	e51b303c 	ldr	r3, [fp, #-60]	; 0xffffffc4
c0008c70:	e2833001 	add	r3, r3, #1
c0008c74:	e50b303c 	str	r3, [fp, #-60]	; 0xffffffc4
			if (is_digit(*fmt))
c0008c78:	e51b303c 	ldr	r3, [fp, #-60]	; 0xffffffc4
c0008c7c:	e5d33000 	ldrb	r3, [r3]
c0008c80:	e353002f 	cmp	r3, #47	; 0x2f
c0008c84:	9a000008 	bls	c0008cac <vsprintf+0x1f8>
c0008c88:	e51b303c 	ldr	r3, [fp, #-60]	; 0xffffffc4
c0008c8c:	e5d33000 	ldrb	r3, [r3]
c0008c90:	e3530039 	cmp	r3, #57	; 0x39
c0008c94:	8a000004 	bhi	c0008cac <vsprintf+0x1f8>
				precision = skip_atoi(&fmt);
c0008c98:	e24b303c 	sub	r3, fp, #60	; 0x3c
c0008c9c:	e1a00003 	mov	r0, r3
c0008ca0:	ebfffe4a 	bl	c00085d0 <skip_atoi>
c0008ca4:	e50b0024 	str	r0, [fp, #-36]	; 0xffffffdc
c0008ca8:	ea00000b 	b	c0008cdc <vsprintf+0x228>
			else if (*fmt == '*') {
c0008cac:	e51b303c 	ldr	r3, [fp, #-60]	; 0xffffffc4
c0008cb0:	e5d33000 	ldrb	r3, [r3]
c0008cb4:	e353002a 	cmp	r3, #42	; 0x2a
c0008cb8:	1a000007 	bne	c0008cdc <vsprintf+0x228>
				++fmt;
c0008cbc:	e51b303c 	ldr	r3, [fp, #-60]	; 0xffffffc4
c0008cc0:	e2833001 	add	r3, r3, #1
c0008cc4:	e50b303c 	str	r3, [fp, #-60]	; 0xffffffc4
				/* it's the next argument */
				precision = va_arg(args, int);
c0008cc8:	e51b3040 	ldr	r3, [fp, #-64]	; 0xffffffc0
c0008ccc:	e2832004 	add	r2, r3, #4
c0008cd0:	e50b2040 	str	r2, [fp, #-64]	; 0xffffffc0
c0008cd4:	e5933000 	ldr	r3, [r3]
c0008cd8:	e50b3024 	str	r3, [fp, #-36]	; 0xffffffdc
			}
			if (precision < 0)
c0008cdc:	e51b3024 	ldr	r3, [fp, #-36]	; 0xffffffdc
c0008ce0:	e3530000 	cmp	r3, #0
c0008ce4:	aa000001 	bge	c0008cf0 <vsprintf+0x23c>
				precision = 0;
c0008ce8:	e3a03000 	mov	r3, #0
c0008cec:	e50b3024 	str	r3, [fp, #-36]	; 0xffffffdc
		}

		/* get the conversion qualifier */
		qualifier = -1;
c0008cf0:	e3e03000 	mvn	r3, #0
c0008cf4:	e50b3028 	str	r3, [fp, #-40]	; 0xffffffd8
		if (*fmt == 'h' || *fmt == 'l' || *fmt == 'L' ||
c0008cf8:	e51b303c 	ldr	r3, [fp, #-60]	; 0xffffffc4
c0008cfc:	e5d33000 	ldrb	r3, [r3]
c0008d00:	e3530068 	cmp	r3, #104	; 0x68
c0008d04:	0a000017 	beq	c0008d68 <vsprintf+0x2b4>
c0008d08:	e51b303c 	ldr	r3, [fp, #-60]	; 0xffffffc4
c0008d0c:	e5d33000 	ldrb	r3, [r3]
c0008d10:	e353006c 	cmp	r3, #108	; 0x6c
c0008d14:	0a000013 	beq	c0008d68 <vsprintf+0x2b4>
c0008d18:	e51b303c 	ldr	r3, [fp, #-60]	; 0xffffffc4
c0008d1c:	e5d33000 	ldrb	r3, [r3]
c0008d20:	e353004c 	cmp	r3, #76	; 0x4c
c0008d24:	0a00000f 	beq	c0008d68 <vsprintf+0x2b4>
		    *fmt == 'Z' || *fmt == 'z' || *fmt == 't' ||
c0008d28:	e51b303c 	ldr	r3, [fp, #-60]	; 0xffffffc4
c0008d2c:	e5d33000 	ldrb	r3, [r3]
		if (*fmt == 'h' || *fmt == 'l' || *fmt == 'L' ||
c0008d30:	e353005a 	cmp	r3, #90	; 0x5a
c0008d34:	0a00000b 	beq	c0008d68 <vsprintf+0x2b4>
		    *fmt == 'Z' || *fmt == 'z' || *fmt == 't' ||
c0008d38:	e51b303c 	ldr	r3, [fp, #-60]	; 0xffffffc4
c0008d3c:	e5d33000 	ldrb	r3, [r3]
c0008d40:	e353007a 	cmp	r3, #122	; 0x7a
c0008d44:	0a000007 	beq	c0008d68 <vsprintf+0x2b4>
c0008d48:	e51b303c 	ldr	r3, [fp, #-60]	; 0xffffffc4
c0008d4c:	e5d33000 	ldrb	r3, [r3]
c0008d50:	e3530074 	cmp	r3, #116	; 0x74
c0008d54:	0a000003 	beq	c0008d68 <vsprintf+0x2b4>
		    *fmt == 'q' ) {
c0008d58:	e51b303c 	ldr	r3, [fp, #-60]	; 0xffffffc4
c0008d5c:	e5d33000 	ldrb	r3, [r3]
		    *fmt == 'Z' || *fmt == 'z' || *fmt == 't' ||
c0008d60:	e3530071 	cmp	r3, #113	; 0x71
c0008d64:	1a000012 	bne	c0008db4 <vsprintf+0x300>
			qualifier = *fmt;
c0008d68:	e51b303c 	ldr	r3, [fp, #-60]	; 0xffffffc4
c0008d6c:	e5d33000 	ldrb	r3, [r3]
c0008d70:	e50b3028 	str	r3, [fp, #-40]	; 0xffffffd8
			if (qualifier == 'l' && *(fmt+1) == 'l') {
c0008d74:	e51b3028 	ldr	r3, [fp, #-40]	; 0xffffffd8
c0008d78:	e353006c 	cmp	r3, #108	; 0x6c
c0008d7c:	1a000009 	bne	c0008da8 <vsprintf+0x2f4>
c0008d80:	e51b303c 	ldr	r3, [fp, #-60]	; 0xffffffc4
c0008d84:	e2833001 	add	r3, r3, #1
c0008d88:	e5d33000 	ldrb	r3, [r3]
c0008d8c:	e353006c 	cmp	r3, #108	; 0x6c
c0008d90:	1a000004 	bne	c0008da8 <vsprintf+0x2f4>
				qualifier = 'q';
c0008d94:	e3a03071 	mov	r3, #113	; 0x71
c0008d98:	e50b3028 	str	r3, [fp, #-40]	; 0xffffffd8
				++fmt;
c0008d9c:	e51b303c 	ldr	r3, [fp, #-60]	; 0xffffffc4
c0008da0:	e2833001 	add	r3, r3, #1
c0008da4:	e50b303c 	str	r3, [fp, #-60]	; 0xffffffc4
			}
			++fmt;
c0008da8:	e51b303c 	ldr	r3, [fp, #-60]	; 0xffffffc4
c0008dac:	e2833001 	add	r3, r3, #1
c0008db0:	e50b303c 	str	r3, [fp, #-60]	; 0xffffffc4
		}

		/* default base */
		base = 10;
c0008db4:	e3a0300a 	mov	r3, #10
c0008db8:	e50b3010 	str	r3, [fp, #-16]

		switch (*fmt) {
c0008dbc:	e51b303c 	ldr	r3, [fp, #-60]	; 0xffffffc4
c0008dc0:	e5d33000 	ldrb	r3, [r3]
c0008dc4:	e2433025 	sub	r3, r3, #37	; 0x25
c0008dc8:	e3530053 	cmp	r3, #83	; 0x53
c0008dcc:	979ff103 	ldrls	pc, [pc, r3, lsl #2]
c0008dd0:	ea0000fc 	b	c00091c8 <vsprintf+0x714>
c0008dd4:	c000917c 	andgt	r9, r0, ip, ror r1
c0008dd8:	c00091c8 	andgt	r9, r0, r8, asr #3
c0008ddc:	c00091c8 	andgt	r9, r0, r8, asr #3
c0008de0:	c00091c8 	andgt	r9, r0, r8, asr #3
c0008de4:	c00091c8 	andgt	r9, r0, r8, asr #3
c0008de8:	c00091c8 	andgt	r9, r0, r8, asr #3
c0008dec:	c00091c8 	andgt	r9, r0, r8, asr #3
c0008df0:	c00091c8 	andgt	r9, r0, r8, asr #3
c0008df4:	c00091c8 	andgt	r9, r0, r8, asr #3
c0008df8:	c00091c8 	andgt	r9, r0, r8, asr #3
c0008dfc:	c00091c8 	andgt	r9, r0, r8, asr #3
c0008e00:	c00091c8 	andgt	r9, r0, r8, asr #3
c0008e04:	c00091c8 	andgt	r9, r0, r8, asr #3
c0008e08:	c00091c8 	andgt	r9, r0, r8, asr #3
c0008e0c:	c00091c8 	andgt	r9, r0, r8, asr #3
c0008e10:	c00091c8 	andgt	r9, r0, r8, asr #3
c0008e14:	c00091c8 	andgt	r9, r0, r8, asr #3
c0008e18:	c00091c8 	andgt	r9, r0, r8, asr #3
c0008e1c:	c00091c8 	andgt	r9, r0, r8, asr #3
c0008e20:	c00091c8 	andgt	r9, r0, r8, asr #3
c0008e24:	c00091c8 	andgt	r9, r0, r8, asr #3
c0008e28:	c00091c8 	andgt	r9, r0, r8, asr #3
c0008e2c:	c00091c8 	andgt	r9, r0, r8, asr #3
c0008e30:	c00091c8 	andgt	r9, r0, r8, asr #3
c0008e34:	c00091c8 	andgt	r9, r0, r8, asr #3
c0008e38:	c00091c8 	andgt	r9, r0, r8, asr #3
c0008e3c:	c00091c8 	andgt	r9, r0, r8, asr #3
c0008e40:	c00091c8 	andgt	r9, r0, r8, asr #3
c0008e44:	c00091c8 	andgt	r9, r0, r8, asr #3
c0008e48:	c00091c8 	andgt	r9, r0, r8, asr #3
c0008e4c:	c00091c8 	andgt	r9, r0, r8, asr #3
c0008e50:	c00091c8 	andgt	r9, r0, r8, asr #3
c0008e54:	c00091c8 	andgt	r9, r0, r8, asr #3
c0008e58:	c00091c8 	andgt	r9, r0, r8, asr #3
c0008e5c:	c00091c8 	andgt	r9, r0, r8, asr #3
c0008e60:	c00091c8 	andgt	r9, r0, r8, asr #3
c0008e64:	c00091c8 	andgt	r9, r0, r8, asr #3
c0008e68:	c00091c8 	andgt	r9, r0, r8, asr #3
c0008e6c:	c00091c8 	andgt	r9, r0, r8, asr #3
c0008e70:	c00091c8 	andgt	r9, r0, r8, asr #3
c0008e74:	c00091c8 	andgt	r9, r0, r8, asr #3
c0008e78:	c00091c8 	andgt	r9, r0, r8, asr #3
c0008e7c:	c00091c8 	andgt	r9, r0, r8, asr #3
c0008e80:	c00091c8 	andgt	r9, r0, r8, asr #3
c0008e84:	c00091c8 	andgt	r9, r0, r8, asr #3
c0008e88:	c00091c8 	andgt	r9, r0, r8, asr #3
c0008e8c:	c00091c8 	andgt	r9, r0, r8, asr #3
c0008e90:	c00091c8 	andgt	r9, r0, r8, asr #3
c0008e94:	c00091c8 	andgt	r9, r0, r8, asr #3
c0008e98:	c00091c8 	andgt	r9, r0, r8, asr #3
c0008e9c:	c00091c8 	andgt	r9, r0, r8, asr #3
c0008ea0:	c00091a0 	andgt	r9, r0, r0, lsr #3
c0008ea4:	c00091c8 	andgt	r9, r0, r8, asr #3
c0008ea8:	c00091c8 	andgt	r9, r0, r8, asr #3
c0008eac:	c00091c8 	andgt	r9, r0, r8, asr #3
c0008eb0:	c00091c8 	andgt	r9, r0, r8, asr #3
c0008eb4:	c00091c8 	andgt	r9, r0, r8, asr #3
c0008eb8:	c00091c8 	andgt	r9, r0, r8, asr #3
c0008ebc:	c00091c8 	andgt	r9, r0, r8, asr #3
c0008ec0:	c00091c8 	andgt	r9, r0, r8, asr #3
c0008ec4:	c00091c8 	andgt	r9, r0, r8, asr #3
c0008ec8:	c00091c8 	andgt	r9, r0, r8, asr #3
c0008ecc:	c0008f24 	andgt	r8, r0, r4, lsr #30
c0008ed0:	c00091b8 			; <UNDEFINED> instruction: 0xc00091b8
c0008ed4:	c00091c8 	andgt	r9, r0, r8, asr #3
c0008ed8:	c00091c8 	andgt	r9, r0, r8, asr #3
c0008edc:	c00091c8 	andgt	r9, r0, r8, asr #3
c0008ee0:	c00091c8 	andgt	r9, r0, r8, asr #3
c0008ee4:	c00091b8 			; <UNDEFINED> instruction: 0xc00091b8
c0008ee8:	c00091c8 	andgt	r9, r0, r8, asr #3
c0008eec:	c00091c8 	andgt	r9, r0, r8, asr #3
c0008ef0:	c00091c8 	andgt	r9, r0, r8, asr #3
c0008ef4:	c00091c8 	andgt	r9, r0, r8, asr #3
c0008ef8:	c0009118 	andgt	r9, r0, r8, lsl r1
c0008efc:	c0009194 	mulgt	r0, r4, r1
c0008f00:	c00090bc 	strhgt	r9, [r0], -ip
c0008f04:	c00091c8 	andgt	r9, r0, r8, asr #3
c0008f08:	c00091c8 	andgt	r9, r0, r8, asr #3
c0008f0c:	c0008fbc 			; <UNDEFINED> instruction: 0xc0008fbc
c0008f10:	c00091c8 	andgt	r9, r0, r8, asr #3
c0008f14:	c0009218 	andgt	r9, r0, r8, lsl r2
c0008f18:	c00091c8 	andgt	r9, r0, r8, asr #3
c0008f1c:	c00091c8 	andgt	r9, r0, r8, asr #3
c0008f20:	c00091ac 	andgt	r9, r0, ip, lsr #3
		case 'c':
			if (!(flags & LEFT))
c0008f24:	e51b301c 	ldr	r3, [fp, #-28]	; 0xffffffe4
c0008f28:	e2033010 	and	r3, r3, #16
c0008f2c:	e3530000 	cmp	r3, #0
c0008f30:	1a00000b 	bne	c0008f64 <vsprintf+0x4b0>
				while (--field_width > 0)
c0008f34:	ea000004 	b	c0008f4c <vsprintf+0x498>
					*str++ = ' ';
c0008f38:	e51b3014 	ldr	r3, [fp, #-20]	; 0xffffffec
c0008f3c:	e2832001 	add	r2, r3, #1
c0008f40:	e50b2014 	str	r2, [fp, #-20]	; 0xffffffec
c0008f44:	e3a02020 	mov	r2, #32
c0008f48:	e5c32000 	strb	r2, [r3]
				while (--field_width > 0)
c0008f4c:	e51b3020 	ldr	r3, [fp, #-32]	; 0xffffffe0
c0008f50:	e2433001 	sub	r3, r3, #1
c0008f54:	e50b3020 	str	r3, [fp, #-32]	; 0xffffffe0
c0008f58:	e51b3020 	ldr	r3, [fp, #-32]	; 0xffffffe0
c0008f5c:	e3530000 	cmp	r3, #0
c0008f60:	cafffff4 	bgt	c0008f38 <vsprintf+0x484>
			*str++ = (unsigned char) va_arg(args, int);
c0008f64:	e51b3040 	ldr	r3, [fp, #-64]	; 0xffffffc0
c0008f68:	e2832004 	add	r2, r3, #4
c0008f6c:	e50b2040 	str	r2, [fp, #-64]	; 0xffffffc0
c0008f70:	e5931000 	ldr	r1, [r3]
c0008f74:	e51b3014 	ldr	r3, [fp, #-20]	; 0xffffffec
c0008f78:	e2832001 	add	r2, r3, #1
c0008f7c:	e50b2014 	str	r2, [fp, #-20]	; 0xffffffec
c0008f80:	e6ef2071 	uxtb	r2, r1
c0008f84:	e5c32000 	strb	r2, [r3]
			while (--field_width > 0)
c0008f88:	ea000004 	b	c0008fa0 <vsprintf+0x4ec>
				*str++ = ' ';
c0008f8c:	e51b3014 	ldr	r3, [fp, #-20]	; 0xffffffec
c0008f90:	e2832001 	add	r2, r3, #1
c0008f94:	e50b2014 	str	r2, [fp, #-20]	; 0xffffffec
c0008f98:	e3a02020 	mov	r2, #32
c0008f9c:	e5c32000 	strb	r2, [r3]
			while (--field_width > 0)
c0008fa0:	e51b3020 	ldr	r3, [fp, #-32]	; 0xffffffe0
c0008fa4:	e2433001 	sub	r3, r3, #1
c0008fa8:	e50b3020 	str	r3, [fp, #-32]	; 0xffffffe0
c0008fac:	e51b3020 	ldr	r3, [fp, #-32]	; 0xffffffe0
c0008fb0:	e3530000 	cmp	r3, #0
c0008fb4:	cafffff4 	bgt	c0008f8c <vsprintf+0x4d8>
			continue;
c0008fb8:	ea0000df 	b	c000933c <vsprintf+0x888>

		case 's':
			s = va_arg(args, char *);
c0008fbc:	e51b3040 	ldr	r3, [fp, #-64]	; 0xffffffc0
c0008fc0:	e2832004 	add	r2, r3, #4
c0008fc4:	e50b2040 	str	r2, [fp, #-64]	; 0xffffffc0
c0008fc8:	e5933000 	ldr	r3, [r3]
c0008fcc:	e50b3018 	str	r3, [fp, #-24]	; 0xffffffe8
			if (!s)
c0008fd0:	e51b3018 	ldr	r3, [fp, #-24]	; 0xffffffe8
c0008fd4:	e3530000 	cmp	r3, #0
c0008fd8:	1a000002 	bne	c0008fe8 <vsprintf+0x534>
				s = "<NULL>";
c0008fdc:	e3093cec 	movw	r3, #40172	; 0x9cec
c0008fe0:	e34c3000 	movt	r3, #49152	; 0xc000
c0008fe4:	e50b3018 	str	r3, [fp, #-24]	; 0xffffffe8

			len = strnlen(s, precision);
c0008fe8:	e51b3024 	ldr	r3, [fp, #-36]	; 0xffffffdc
c0008fec:	e1a01003 	mov	r1, r3
c0008ff0:	e51b0018 	ldr	r0, [fp, #-24]	; 0xffffffe8
c0008ff4:	ebfffe93 	bl	c0008a48 <strnlen>
c0008ff8:	e1a03000 	mov	r3, r0
c0008ffc:	e50b302c 	str	r3, [fp, #-44]	; 0xffffffd4

			if (!(flags & LEFT))
c0009000:	e51b301c 	ldr	r3, [fp, #-28]	; 0xffffffe4
c0009004:	e2033010 	and	r3, r3, #16
c0009008:	e3530000 	cmp	r3, #0
c000900c:	1a00000b 	bne	c0009040 <vsprintf+0x58c>
				while (len < field_width--)
c0009010:	ea000004 	b	c0009028 <vsprintf+0x574>
					*str++ = ' ';
c0009014:	e51b3014 	ldr	r3, [fp, #-20]	; 0xffffffec
c0009018:	e2832001 	add	r2, r3, #1
c000901c:	e50b2014 	str	r2, [fp, #-20]	; 0xffffffec
c0009020:	e3a02020 	mov	r2, #32
c0009024:	e5c32000 	strb	r2, [r3]
				while (len < field_width--)
c0009028:	e51b3020 	ldr	r3, [fp, #-32]	; 0xffffffe0
c000902c:	e2432001 	sub	r2, r3, #1
c0009030:	e50b2020 	str	r2, [fp, #-32]	; 0xffffffe0
c0009034:	e51b202c 	ldr	r2, [fp, #-44]	; 0xffffffd4
c0009038:	e1520003 	cmp	r2, r3
c000903c:	bafffff4 	blt	c0009014 <vsprintf+0x560>
			for (i = 0; i < len; ++i)
c0009040:	e3a03000 	mov	r3, #0
c0009044:	e50b300c 	str	r3, [fp, #-12]
c0009048:	ea00000a 	b	c0009078 <vsprintf+0x5c4>
				*str++ = *s++;
c000904c:	e51b2018 	ldr	r2, [fp, #-24]	; 0xffffffe8
c0009050:	e2823001 	add	r3, r2, #1
c0009054:	e50b3018 	str	r3, [fp, #-24]	; 0xffffffe8
c0009058:	e51b3014 	ldr	r3, [fp, #-20]	; 0xffffffec
c000905c:	e2831001 	add	r1, r3, #1
c0009060:	e50b1014 	str	r1, [fp, #-20]	; 0xffffffec
c0009064:	e5d22000 	ldrb	r2, [r2]
c0009068:	e5c32000 	strb	r2, [r3]
			for (i = 0; i < len; ++i)
c000906c:	e51b300c 	ldr	r3, [fp, #-12]
c0009070:	e2833001 	add	r3, r3, #1
c0009074:	e50b300c 	str	r3, [fp, #-12]
c0009078:	e51b200c 	ldr	r2, [fp, #-12]
c000907c:	e51b302c 	ldr	r3, [fp, #-44]	; 0xffffffd4
c0009080:	e1520003 	cmp	r2, r3
c0009084:	bafffff0 	blt	c000904c <vsprintf+0x598>
			while (len < field_width--)
c0009088:	ea000004 	b	c00090a0 <vsprintf+0x5ec>
				*str++ = ' ';
c000908c:	e51b3014 	ldr	r3, [fp, #-20]	; 0xffffffec
c0009090:	e2832001 	add	r2, r3, #1
c0009094:	e50b2014 	str	r2, [fp, #-20]	; 0xffffffec
c0009098:	e3a02020 	mov	r2, #32
c000909c:	e5c32000 	strb	r2, [r3]
			while (len < field_width--)
c00090a0:	e51b3020 	ldr	r3, [fp, #-32]	; 0xffffffe0
c00090a4:	e2432001 	sub	r2, r3, #1
c00090a8:	e50b2020 	str	r2, [fp, #-32]	; 0xffffffe0
c00090ac:	e51b202c 	ldr	r2, [fp, #-44]	; 0xffffffd4
c00090b0:	e1520003 	cmp	r2, r3
c00090b4:	bafffff4 	blt	c000908c <vsprintf+0x5d8>
			continue;
c00090b8:	ea00009f 	b	c000933c <vsprintf+0x888>

		case 'p':
			if (field_width == -1) {
c00090bc:	e51b3020 	ldr	r3, [fp, #-32]	; 0xffffffe0
c00090c0:	e3730001 	cmn	r3, #1
c00090c4:	1a000004 	bne	c00090dc <vsprintf+0x628>
				field_width = 2*sizeof(void *);
c00090c8:	e3a03008 	mov	r3, #8
c00090cc:	e50b3020 	str	r3, [fp, #-32]	; 0xffffffe0
				flags |= ZEROPAD;
c00090d0:	e51b301c 	ldr	r3, [fp, #-28]	; 0xffffffe4
c00090d4:	e3833001 	orr	r3, r3, #1
c00090d8:	e50b301c 	str	r3, [fp, #-28]	; 0xffffffe4
			}
			str = number(str,
				(unsigned long) va_arg(args, void *), 16,
c00090dc:	e51b3040 	ldr	r3, [fp, #-64]	; 0xffffffc0
c00090e0:	e2832004 	add	r2, r3, #4
c00090e4:	e50b2040 	str	r2, [fp, #-64]	; 0xffffffc0
c00090e8:	e5933000 	ldr	r3, [r3]
			str = number(str,
c00090ec:	e1a01003 	mov	r1, r3
c00090f0:	e51b301c 	ldr	r3, [fp, #-28]	; 0xffffffe4
c00090f4:	e58d3004 	str	r3, [sp, #4]
c00090f8:	e51b3024 	ldr	r3, [fp, #-36]	; 0xffffffdc
c00090fc:	e58d3000 	str	r3, [sp]
c0009100:	e51b3020 	ldr	r3, [fp, #-32]	; 0xffffffe0
c0009104:	e3a02010 	mov	r2, #16
c0009108:	e51b0014 	ldr	r0, [fp, #-20]	; 0xffffffec
c000910c:	ebfffd54 	bl	c0008664 <number>
c0009110:	e50b0014 	str	r0, [fp, #-20]	; 0xffffffec
				field_width, precision, flags);
			continue;
c0009114:	ea000088 	b	c000933c <vsprintf+0x888>


		case 'n':
			if (qualifier == 'l') {
c0009118:	e51b3028 	ldr	r3, [fp, #-40]	; 0xffffffd8
c000911c:	e353006c 	cmp	r3, #108	; 0x6c
c0009120:	1a00000a 	bne	c0009150 <vsprintf+0x69c>
				long * ip = va_arg(args, long *);
c0009124:	e51b3040 	ldr	r3, [fp, #-64]	; 0xffffffc0
c0009128:	e2832004 	add	r2, r3, #4
c000912c:	e50b2040 	str	r2, [fp, #-64]	; 0xffffffc0
c0009130:	e5933000 	ldr	r3, [r3]
c0009134:	e50b3034 	str	r3, [fp, #-52]	; 0xffffffcc
				*ip = (str - buf);
c0009138:	e51b2014 	ldr	r2, [fp, #-20]	; 0xffffffec
c000913c:	e51b3038 	ldr	r3, [fp, #-56]	; 0xffffffc8
c0009140:	e0422003 	sub	r2, r2, r3
c0009144:	e51b3034 	ldr	r3, [fp, #-52]	; 0xffffffcc
c0009148:	e5832000 	str	r2, [r3]
			} else {
				int * ip = va_arg(args, int *);
				*ip = (str - buf);
			}
			continue;
c000914c:	ea00007a 	b	c000933c <vsprintf+0x888>
				int * ip = va_arg(args, int *);
c0009150:	e51b3040 	ldr	r3, [fp, #-64]	; 0xffffffc0
c0009154:	e2832004 	add	r2, r3, #4
c0009158:	e50b2040 	str	r2, [fp, #-64]	; 0xffffffc0
c000915c:	e5933000 	ldr	r3, [r3]
c0009160:	e50b3030 	str	r3, [fp, #-48]	; 0xffffffd0
				*ip = (str - buf);
c0009164:	e51b2014 	ldr	r2, [fp, #-20]	; 0xffffffec
c0009168:	e51b3038 	ldr	r3, [fp, #-56]	; 0xffffffc8
c000916c:	e0422003 	sub	r2, r2, r3
c0009170:	e51b3030 	ldr	r3, [fp, #-48]	; 0xffffffd0
c0009174:	e5832000 	str	r2, [r3]
			continue;
c0009178:	ea00006f 	b	c000933c <vsprintf+0x888>

		case '%':
			*str++ = '%';
c000917c:	e51b3014 	ldr	r3, [fp, #-20]	; 0xffffffec
c0009180:	e2832001 	add	r2, r3, #1
c0009184:	e50b2014 	str	r2, [fp, #-20]	; 0xffffffec
c0009188:	e3a02025 	mov	r2, #37	; 0x25
c000918c:	e5c32000 	strb	r2, [r3]
			continue;
c0009190:	ea000069 	b	c000933c <vsprintf+0x888>

		/* integer number formats - set up the flags and "break" */
		case 'o':
			base = 8;
c0009194:	e3a03008 	mov	r3, #8
c0009198:	e50b3010 	str	r3, [fp, #-16]
			break;
c000919c:	ea00001e 	b	c000921c <vsprintf+0x768>

		case 'X':
			flags |= LARGE;
c00091a0:	e51b301c 	ldr	r3, [fp, #-28]	; 0xffffffe4
c00091a4:	e3833040 	orr	r3, r3, #64	; 0x40
c00091a8:	e50b301c 	str	r3, [fp, #-28]	; 0xffffffe4
		case 'x':
			base = 16;
c00091ac:	e3a03010 	mov	r3, #16
c00091b0:	e50b3010 	str	r3, [fp, #-16]
			break;
c00091b4:	ea000018 	b	c000921c <vsprintf+0x768>

		case 'd':
		case 'i':
			flags |= SIGN;
c00091b8:	e51b301c 	ldr	r3, [fp, #-28]	; 0xffffffe4
c00091bc:	e3833002 	orr	r3, r3, #2
c00091c0:	e50b301c 	str	r3, [fp, #-28]	; 0xffffffe4
		case 'u':
			break;
c00091c4:	ea000013 	b	c0009218 <vsprintf+0x764>

		default:
			*str++ = '%';
c00091c8:	e51b3014 	ldr	r3, [fp, #-20]	; 0xffffffec
c00091cc:	e2832001 	add	r2, r3, #1
c00091d0:	e50b2014 	str	r2, [fp, #-20]	; 0xffffffec
c00091d4:	e3a02025 	mov	r2, #37	; 0x25
c00091d8:	e5c32000 	strb	r2, [r3]
			if (*fmt)
c00091dc:	e51b303c 	ldr	r3, [fp, #-60]	; 0xffffffc4
c00091e0:	e5d33000 	ldrb	r3, [r3]
c00091e4:	e3530000 	cmp	r3, #0
c00091e8:	0a000006 	beq	c0009208 <vsprintf+0x754>
				*str++ = *fmt;
c00091ec:	e51b203c 	ldr	r2, [fp, #-60]	; 0xffffffc4
c00091f0:	e51b3014 	ldr	r3, [fp, #-20]	; 0xffffffec
c00091f4:	e2831001 	add	r1, r3, #1
c00091f8:	e50b1014 	str	r1, [fp, #-20]	; 0xffffffec
c00091fc:	e5d22000 	ldrb	r2, [r2]
c0009200:	e5c32000 	strb	r2, [r3]
			else
				--fmt;
			continue;
c0009204:	ea00004c 	b	c000933c <vsprintf+0x888>
				--fmt;
c0009208:	e51b303c 	ldr	r3, [fp, #-60]	; 0xffffffc4
c000920c:	e2433001 	sub	r3, r3, #1
c0009210:	e50b303c 	str	r3, [fp, #-60]	; 0xffffffc4
			continue;
c0009214:	ea000048 	b	c000933c <vsprintf+0x888>
			break;
c0009218:	e320f000 	nop	{0}
#ifdef CFG_64BIT_VSPRINTF
		if (qualifier == 'q')  /* "quad" for 64 bit variables */
			num = va_arg(args, unsigned long long);
		else
#endif
		if (qualifier == 'l') {
c000921c:	e51b3028 	ldr	r3, [fp, #-40]	; 0xffffffd8
c0009220:	e353006c 	cmp	r3, #108	; 0x6c
c0009224:	1a000005 	bne	c0009240 <vsprintf+0x78c>
			num = va_arg(args, unsigned long);
c0009228:	e51b3040 	ldr	r3, [fp, #-64]	; 0xffffffc0
c000922c:	e2832004 	add	r2, r3, #4
c0009230:	e50b2040 	str	r2, [fp, #-64]	; 0xffffffc0
c0009234:	e5933000 	ldr	r3, [r3]
c0009238:	e50b3008 	str	r3, [fp, #-8]
c000923c:	ea000034 	b	c0009314 <vsprintf+0x860>
		} else if (qualifier == 'Z' || qualifier == 'z') {
c0009240:	e51b3028 	ldr	r3, [fp, #-40]	; 0xffffffd8
c0009244:	e353005a 	cmp	r3, #90	; 0x5a
c0009248:	0a000002 	beq	c0009258 <vsprintf+0x7a4>
c000924c:	e51b3028 	ldr	r3, [fp, #-40]	; 0xffffffd8
c0009250:	e353007a 	cmp	r3, #122	; 0x7a
c0009254:	1a000005 	bne	c0009270 <vsprintf+0x7bc>
			num = va_arg(args, size_t);
c0009258:	e51b3040 	ldr	r3, [fp, #-64]	; 0xffffffc0
c000925c:	e2832004 	add	r2, r3, #4
c0009260:	e50b2040 	str	r2, [fp, #-64]	; 0xffffffc0
c0009264:	e5933000 	ldr	r3, [r3]
c0009268:	e50b3008 	str	r3, [fp, #-8]
c000926c:	ea000028 	b	c0009314 <vsprintf+0x860>
		} else if (qualifier == 't') {
c0009270:	e51b3028 	ldr	r3, [fp, #-40]	; 0xffffffd8
c0009274:	e3530074 	cmp	r3, #116	; 0x74
c0009278:	1a000005 	bne	c0009294 <vsprintf+0x7e0>
			num = va_arg(args, long);
c000927c:	e51b3040 	ldr	r3, [fp, #-64]	; 0xffffffc0
c0009280:	e2832004 	add	r2, r3, #4
c0009284:	e50b2040 	str	r2, [fp, #-64]	; 0xffffffc0
c0009288:	e5933000 	ldr	r3, [r3]
c000928c:	e50b3008 	str	r3, [fp, #-8]
c0009290:	ea00001f 	b	c0009314 <vsprintf+0x860>
		} else if (qualifier == 'h') {
c0009294:	e51b3028 	ldr	r3, [fp, #-40]	; 0xffffffd8
c0009298:	e3530068 	cmp	r3, #104	; 0x68
c000929c:	1a00000d 	bne	c00092d8 <vsprintf+0x824>
			num = (unsigned short) va_arg(args, int);
c00092a0:	e51b3040 	ldr	r3, [fp, #-64]	; 0xffffffc0
c00092a4:	e2832004 	add	r2, r3, #4
c00092a8:	e50b2040 	str	r2, [fp, #-64]	; 0xffffffc0
c00092ac:	e5933000 	ldr	r3, [r3]
c00092b0:	e6ff3073 	uxth	r3, r3
c00092b4:	e50b3008 	str	r3, [fp, #-8]
			if (flags & SIGN)
c00092b8:	e51b301c 	ldr	r3, [fp, #-28]	; 0xffffffe4
c00092bc:	e2033002 	and	r3, r3, #2
c00092c0:	e3530000 	cmp	r3, #0
c00092c4:	0a000012 	beq	c0009314 <vsprintf+0x860>
				num = (short) num;
c00092c8:	e51b3008 	ldr	r3, [fp, #-8]
c00092cc:	e6bf3073 	sxth	r3, r3
c00092d0:	e50b3008 	str	r3, [fp, #-8]
c00092d4:	ea00000e 	b	c0009314 <vsprintf+0x860>
		} else if (flags & SIGN)
c00092d8:	e51b301c 	ldr	r3, [fp, #-28]	; 0xffffffe4
c00092dc:	e2033002 	and	r3, r3, #2
c00092e0:	e3530000 	cmp	r3, #0
c00092e4:	0a000005 	beq	c0009300 <vsprintf+0x84c>
			num = va_arg(args, int);
c00092e8:	e51b3040 	ldr	r3, [fp, #-64]	; 0xffffffc0
c00092ec:	e2832004 	add	r2, r3, #4
c00092f0:	e50b2040 	str	r2, [fp, #-64]	; 0xffffffc0
c00092f4:	e5933000 	ldr	r3, [r3]
c00092f8:	e50b3008 	str	r3, [fp, #-8]
c00092fc:	ea000004 	b	c0009314 <vsprintf+0x860>
		else
			num = va_arg(args, unsigned int);
c0009300:	e51b3040 	ldr	r3, [fp, #-64]	; 0xffffffc0
c0009304:	e2832004 	add	r2, r3, #4
c0009308:	e50b2040 	str	r2, [fp, #-64]	; 0xffffffc0
c000930c:	e5933000 	ldr	r3, [r3]
c0009310:	e50b3008 	str	r3, [fp, #-8]
		str = number(str, num, base, field_width, precision, flags);
c0009314:	e51b1008 	ldr	r1, [fp, #-8]
c0009318:	e51b2010 	ldr	r2, [fp, #-16]
c000931c:	e51b301c 	ldr	r3, [fp, #-28]	; 0xffffffe4
c0009320:	e58d3004 	str	r3, [sp, #4]
c0009324:	e51b3024 	ldr	r3, [fp, #-36]	; 0xffffffdc
c0009328:	e58d3000 	str	r3, [sp]
c000932c:	e51b3020 	ldr	r3, [fp, #-32]	; 0xffffffe0
c0009330:	e51b0014 	ldr	r0, [fp, #-20]	; 0xffffffec
c0009334:	ebfffcca 	bl	c0008664 <number>
c0009338:	e50b0014 	str	r0, [fp, #-20]	; 0xffffffec
	for (str=buf ; *fmt ; ++fmt) {
c000933c:	e51b303c 	ldr	r3, [fp, #-60]	; 0xffffffc4
c0009340:	e2833001 	add	r3, r3, #1
c0009344:	e50b303c 	str	r3, [fp, #-60]	; 0xffffffc4
c0009348:	e51b303c 	ldr	r3, [fp, #-60]	; 0xffffffc4
c000934c:	e5d33000 	ldrb	r3, [r3]
c0009350:	e3530000 	cmp	r3, #0
c0009354:	1afffddf 	bne	c0008ad8 <vsprintf+0x24>
	}
	*str = '\0';
c0009358:	e51b3014 	ldr	r3, [fp, #-20]	; 0xffffffec
c000935c:	e3a02000 	mov	r2, #0
c0009360:	e5c32000 	strb	r2, [r3]
	return str-buf;
c0009364:	e51b2014 	ldr	r2, [fp, #-20]	; 0xffffffec
c0009368:	e51b3038 	ldr	r3, [fp, #-56]	; 0xffffffc8
c000936c:	e0423003 	sub	r3, r2, r3
}
c0009370:	e1a00003 	mov	r0, r3
c0009374:	e24bd004 	sub	sp, fp, #4
c0009378:	e8bd8800 	pop	{fp, pc}

c000937c <sprintf>:

int sprintf(char * buf, const char *fmt, ...)
{
c000937c:	e92d000e 	push	{r1, r2, r3}
c0009380:	e92d4800 	push	{fp, lr}
c0009384:	e28db004 	add	fp, sp, #4
c0009388:	e24dd00c 	sub	sp, sp, #12
c000938c:	e50b0010 	str	r0, [fp, #-16]
	va_list args;
	int i;

	va_start(args, fmt);
c0009390:	e28b3008 	add	r3, fp, #8
c0009394:	e50b300c 	str	r3, [fp, #-12]
	i=vsprintf(buf,fmt,args);
c0009398:	e51b300c 	ldr	r3, [fp, #-12]
c000939c:	e1a02003 	mov	r2, r3
c00093a0:	e59b1004 	ldr	r1, [fp, #4]
c00093a4:	e51b0010 	ldr	r0, [fp, #-16]
c00093a8:	ebfffdc1 	bl	c0008ab4 <vsprintf>
c00093ac:	e50b0008 	str	r0, [fp, #-8]
	va_end(args);
	return i;
c00093b0:	e51b3008 	ldr	r3, [fp, #-8]
}
c00093b4:	e1a00003 	mov	r0, r3
c00093b8:	e24bd004 	sub	sp, fp, #4
c00093bc:	e8bd4800 	pop	{fp, lr}
c00093c0:	e28dd00c 	add	sp, sp, #12
c00093c4:	e12fff1e 	bx	lr

c00093c8 <printf>:

void printf (const char *fmt, ...)
{
c00093c8:	e92d000f 	push	{r0, r1, r2, r3}
c00093cc:	e92d4800 	push	{fp, lr}
c00093d0:	e28db004 	add	fp, sp, #4
c00093d4:	e24dd068 	sub	sp, sp, #104	; 0x68
	va_list args;
	char printbuffer[100];
	va_start (args, fmt);
c00093d8:	e28b3008 	add	r3, fp, #8
c00093dc:	e50b3008 	str	r3, [fp, #-8]

	/* For this to work, printbuffer must be larger than
	 * anything we ever want to print.
	 */
	vsprintf (printbuffer, fmt, args);
c00093e0:	e51b2008 	ldr	r2, [fp, #-8]
c00093e4:	e24b306c 	sub	r3, fp, #108	; 0x6c
c00093e8:	e59b1004 	ldr	r1, [fp, #4]
c00093ec:	e1a00003 	mov	r0, r3
c00093f0:	ebfffdaf 	bl	c0008ab4 <vsprintf>
	va_end (args);
	__uart_puts (printbuffer);
c00093f4:	e24b306c 	sub	r3, fp, #108	; 0x6c
c00093f8:	e1a00003 	mov	r0, r3
c00093fc:	eb000096 	bl	c000965c <__uart_puts>
}
c0009400:	e320f000 	nop	{0}
c0009404:	e24bd004 	sub	sp, fp, #4
c0009408:	e8bd4800 	pop	{fp, lr}
c000940c:	e28dd010 	add	sp, sp, #16
c0009410:	e12fff1e 	bx	lr

c0009414 <__uart_init>:
#include "stm32mp1xx_gpio.h"
#include "stm32mp1xx_uart.h"
// UART4_TX : PG11  AF6
// UART4_RX : PB2   AF8
void __uart_init()
{
c0009414:	e52db004 	push	{fp}		; (str fp, [sp, #-4]!)
c0009418:	e28db000 	add	fp, sp, #0
   	// GPIOB2 设置为复用功能
   	GPIOB->MODER &= (~(0x3 << 4));
c000941c:	e3a03a03 	mov	r3, #12288	; 0x3000
c0009420:	e3453000 	movt	r3, #20480	; 0x5000
c0009424:	e5932000 	ldr	r2, [r3]
c0009428:	e3a03a03 	mov	r3, #12288	; 0x3000
c000942c:	e3453000 	movt	r3, #20480	; 0x5000
c0009430:	e3c22030 	bic	r2, r2, #48	; 0x30
c0009434:	e5832000 	str	r2, [r3]
   	GPIOB->MODER |= (0x2 << 4);
c0009438:	e3a03a03 	mov	r3, #12288	; 0x3000
c000943c:	e3453000 	movt	r3, #20480	; 0x5000
c0009440:	e5932000 	ldr	r2, [r3]
c0009444:	e3a03a03 	mov	r3, #12288	; 0x3000
c0009448:	e3453000 	movt	r3, #20480	; 0x5000
c000944c:	e3822020 	orr	r2, r2, #32
c0009450:	e5832000 	str	r2, [r3]
	GPIOB->AFRL &= (~(0xF << 8));
c0009454:	e3a03a03 	mov	r3, #12288	; 0x3000
c0009458:	e3453000 	movt	r3, #20480	; 0x5000
c000945c:	e5932020 	ldr	r2, [r3, #32]
c0009460:	e3a03a03 	mov	r3, #12288	; 0x3000
c0009464:	e3453000 	movt	r3, #20480	; 0x5000
c0009468:	e3c22c0f 	bic	r2, r2, #3840	; 0xf00
c000946c:	e5832020 	str	r2, [r3, #32]
	GPIOB->AFRL |= (0x8 << 8);
c0009470:	e3a03a03 	mov	r3, #12288	; 0x3000
c0009474:	e3453000 	movt	r3, #20480	; 0x5000
c0009478:	e5932020 	ldr	r2, [r3, #32]
c000947c:	e3a03a03 	mov	r3, #12288	; 0x3000
c0009480:	e3453000 	movt	r3, #20480	; 0x5000
c0009484:	e3822b02 	orr	r2, r2, #2048	; 0x800
c0009488:	e5832020 	str	r2, [r3, #32]
	// GPIOG11 设置为复用功能 
	GPIOG->MODER &= (~(0x3 << 22));
c000948c:	e3a03902 	mov	r3, #32768	; 0x8000
c0009490:	e3453000 	movt	r3, #20480	; 0x5000
c0009494:	e5932000 	ldr	r2, [r3]
c0009498:	e3a03902 	mov	r3, #32768	; 0x8000
c000949c:	e3453000 	movt	r3, #20480	; 0x5000
c00094a0:	e3c22503 	bic	r2, r2, #12582912	; 0xc00000
c00094a4:	e5832000 	str	r2, [r3]
	GPIOG->MODER |= (0x2 << 4);
c00094a8:	e3a03902 	mov	r3, #32768	; 0x8000
c00094ac:	e3453000 	movt	r3, #20480	; 0x5000
c00094b0:	e5932000 	ldr	r2, [r3]
c00094b4:	e3a03902 	mov	r3, #32768	; 0x8000
c00094b8:	e3453000 	movt	r3, #20480	; 0x5000
c00094bc:	e3822020 	orr	r2, r2, #32
c00094c0:	e5832000 	str	r2, [r3]
	GPIOG->AFRH &= (~(0xF << 12));
c00094c4:	e3a03902 	mov	r3, #32768	; 0x8000
c00094c8:	e3453000 	movt	r3, #20480	; 0x5000
c00094cc:	e5932024 	ldr	r2, [r3, #36]	; 0x24
c00094d0:	e3a03902 	mov	r3, #32768	; 0x8000
c00094d4:	e3453000 	movt	r3, #20480	; 0x5000
c00094d8:	e3c22a0f 	bic	r2, r2, #61440	; 0xf000
c00094dc:	e5832024 	str	r2, [r3, #36]	; 0x24
	GPIOG->AFRH |= (0x6 << 12);
c00094e0:	e3a03902 	mov	r3, #32768	; 0x8000
c00094e4:	e3453000 	movt	r3, #20480	; 0x5000
c00094e8:	e5932024 	ldr	r2, [r3, #36]	; 0x24
c00094ec:	e3a03902 	mov	r3, #32768	; 0x8000
c00094f0:	e3453000 	movt	r3, #20480	; 0x5000
c00094f4:	e3822a06 	orr	r2, r2, #24576	; 0x6000
c00094f8:	e5832024 	str	r2, [r3, #36]	; 0x24
	// 设置数据长度为8位   USART_CR1  
	USART4->CR1 &= (~(0x1 << 28));
c00094fc:	e3a03000 	mov	r3, #0
c0009500:	e3443001 	movt	r3, #16385	; 0x4001
c0009504:	e5932000 	ldr	r2, [r3]
c0009508:	e3a03000 	mov	r3, #0
c000950c:	e3443001 	movt	r3, #16385	; 0x4001
c0009510:	e3c22201 	bic	r2, r2, #268435456	; 0x10000000
c0009514:	e5832000 	str	r2, [r3]
	USART4->CR1 &= (~(0x1 << 12));
c0009518:	e3a03000 	mov	r3, #0
c000951c:	e3443001 	movt	r3, #16385	; 0x4001
c0009520:	e5932000 	ldr	r2, [r3]
c0009524:	e3a03000 	mov	r3, #0
c0009528:	e3443001 	movt	r3, #16385	; 0x4001
c000952c:	e3c22a01 	bic	r2, r2, #4096	; 0x1000
c0009530:	e5832000 	str	r2, [r3]
	// 采样率为16位 
	USART4->CR1 &= (~(0x1 << 15));
c0009534:	e3a03000 	mov	r3, #0
c0009538:	e3443001 	movt	r3, #16385	; 0x4001
c000953c:	e5932000 	ldr	r2, [r3]
c0009540:	e3a03000 	mov	r3, #0
c0009544:	e3443001 	movt	r3, #16385	; 0x4001
c0009548:	e3c22902 	bic	r2, r2, #32768	; 0x8000
c000954c:	e5832000 	str	r2, [r3]
	// 设置波特率为115200bps 
	USART4->PRESC &= (~(0xF << 0));
c0009550:	e3a03000 	mov	r3, #0
c0009554:	e3443001 	movt	r3, #16385	; 0x4001
c0009558:	e593202c 	ldr	r2, [r3, #44]	; 0x2c
c000955c:	e3a03000 	mov	r3, #0
c0009560:	e3443001 	movt	r3, #16385	; 0x4001
c0009564:	e3c2200f 	bic	r2, r2, #15
c0009568:	e583202c 	str	r2, [r3, #44]	; 0x2c
	USART4->BRR = 0xD0;
c000956c:	e3a03000 	mov	r3, #0
c0009570:	e3443001 	movt	r3, #16385	; 0x4001
c0009574:	e3a020d0 	mov	r2, #208	; 0xd0
c0009578:	e583200c 	str	r2, [r3, #12]
	// 停止位1位
	USART4->CR2 &= (~(0x3 << 12));
c000957c:	e3a03000 	mov	r3, #0
c0009580:	e3443001 	movt	r3, #16385	; 0x4001
c0009584:	e5932004 	ldr	r2, [r3, #4]
c0009588:	e3a03000 	mov	r3, #0
c000958c:	e3443001 	movt	r3, #16385	; 0x4001
c0009590:	e3c22a03 	bic	r2, r2, #12288	; 0x3000
c0009594:	e5832004 	str	r2, [r3, #4]
	// 使能USART串口 
	USART4->CR1 |= (0x1 << 0);
c0009598:	e3a03000 	mov	r3, #0
c000959c:	e3443001 	movt	r3, #16385	; 0x4001
c00095a0:	e5932000 	ldr	r2, [r3]
c00095a4:	e3a03000 	mov	r3, #0
c00095a8:	e3443001 	movt	r3, #16385	; 0x4001
c00095ac:	e3822001 	orr	r2, r2, #1
c00095b0:	e5832000 	str	r2, [r3]
	// 使能USART的发送或者接收功能 
	USART4->CR1 |= (0x1 << 3);
c00095b4:	e3a03000 	mov	r3, #0
c00095b8:	e3443001 	movt	r3, #16385	; 0x4001
c00095bc:	e5932000 	ldr	r2, [r3]
c00095c0:	e3a03000 	mov	r3, #0
c00095c4:	e3443001 	movt	r3, #16385	; 0x4001
c00095c8:	e3822008 	orr	r2, r2, #8
c00095cc:	e5832000 	str	r2, [r3]
	USART4->CR1 |= (0x1 << 2);
c00095d0:	e3a03000 	mov	r3, #0
c00095d4:	e3443001 	movt	r3, #16385	; 0x4001
c00095d8:	e5932000 	ldr	r2, [r3]
c00095dc:	e3a03000 	mov	r3, #0
c00095e0:	e3443001 	movt	r3, #16385	; 0x4001
c00095e4:	e3822004 	orr	r2, r2, #4
c00095e8:	e5832000 	str	r2, [r3]

}
c00095ec:	e320f000 	nop	{0}
c00095f0:	e28bd000 	add	sp, fp, #0
c00095f4:	e49db004 	pop	{fp}		; (ldr fp, [sp], #4)
c00095f8:	e12fff1e 	bx	lr

c00095fc <__uart_putc>:

void __uart_putc(const char data)
{
c00095fc:	e92d4800 	push	{fp, lr}
c0009600:	e28db004 	add	fp, sp, #4
c0009604:	e24dd004 	sub	sp, sp, #4
c0009608:	e1a03000 	mov	r3, r0
c000960c:	e54b3008 	strb	r3, [fp, #-8]
	while (!(USART4->ISR & (0x1 << 7)));
c0009610:	e320f000 	nop	{0}
c0009614:	e3a03000 	mov	r3, #0
c0009618:	e3443001 	movt	r3, #16385	; 0x4001
c000961c:	e593301c 	ldr	r3, [r3, #28]
c0009620:	e2033080 	and	r3, r3, #128	; 0x80
c0009624:	e3530000 	cmp	r3, #0
c0009628:	0afffff9 	beq	c0009614 <__uart_putc+0x18>
	USART4->TDR = data;
c000962c:	e3a03000 	mov	r3, #0
c0009630:	e3443001 	movt	r3, #16385	; 0x4001
c0009634:	e55b2008 	ldrb	r2, [fp, #-8]
c0009638:	e5832028 	str	r2, [r3, #40]	; 0x28
	if (data == '\n')
c000963c:	e55b3008 	ldrb	r3, [fp, #-8]
c0009640:	e353000a 	cmp	r3, #10
c0009644:	1a000001 	bne	c0009650 <__uart_putc+0x54>
		__uart_putc('\r');
c0009648:	e3a0000d 	mov	r0, #13
c000964c:	ebffffea 	bl	c00095fc <__uart_putc>
}
c0009650:	e320f000 	nop	{0}
c0009654:	e24bd004 	sub	sp, fp, #4
c0009658:	e8bd8800 	pop	{fp, pc}

c000965c <__uart_puts>:
void __uart_puts(const  char  *pstr)
{
c000965c:	e92d4800 	push	{fp, lr}
c0009660:	e28db004 	add	fp, sp, #4
c0009664:	e24dd004 	sub	sp, sp, #4
c0009668:	e50b0008 	str	r0, [fp, #-8]
	while(*pstr != '\0')
c000966c:	ea000005 	b	c0009688 <__uart_puts+0x2c>
		__uart_putc(*pstr++);
c0009670:	e51b3008 	ldr	r3, [fp, #-8]
c0009674:	e2832001 	add	r2, r3, #1
c0009678:	e50b2008 	str	r2, [fp, #-8]
c000967c:	e5d33000 	ldrb	r3, [r3]
c0009680:	e1a00003 	mov	r0, r3
c0009684:	ebffffdc 	bl	c00095fc <__uart_putc>
	while(*pstr != '\0')
c0009688:	e51b3008 	ldr	r3, [fp, #-8]
c000968c:	e5d33000 	ldrb	r3, [r3]
c0009690:	e3530000 	cmp	r3, #0
c0009694:	1afffff5 	bne	c0009670 <__uart_puts+0x14>
}
c0009698:	e320f000 	nop	{0}
c000969c:	e24bd004 	sub	sp, fp, #4
c00096a0:	e8bd8800 	pop	{fp, pc}

c00096a4 <__uart_getc>:

char __uart_getc(void)
{
c00096a4:	e52db004 	push	{fp}		; (str fp, [sp, #-4]!)
c00096a8:	e28db000 	add	fp, sp, #0
c00096ac:	e24dd004 	sub	sp, sp, #4
	char ch;
	while(!(USART4->ISR & (0x1 << 5)));
c00096b0:	e320f000 	nop	{0}
c00096b4:	e3a03000 	mov	r3, #0
c00096b8:	e3443001 	movt	r3, #16385	; 0x4001
c00096bc:	e593301c 	ldr	r3, [r3, #28]
c00096c0:	e2033020 	and	r3, r3, #32
c00096c4:	e3530000 	cmp	r3, #0
c00096c8:	0afffff9 	beq	c00096b4 <__uart_getc+0x10>
	ch = (char)USART4->RDR;
c00096cc:	e3a03000 	mov	r3, #0
c00096d0:	e3443001 	movt	r3, #16385	; 0x4001
c00096d4:	e5933024 	ldr	r3, [r3, #36]	; 0x24
c00096d8:	e54b3001 	strb	r3, [fp, #-1]
	return ch;
c00096dc:	e55b3001 	ldrb	r3, [fp, #-1]
}
c00096e0:	e1a00003 	mov	r0, r3
c00096e4:	e28bd000 	add	sp, fp, #0
c00096e8:	e49db004 	pop	{fp}		; (ldr fp, [sp], #4)
c00096ec:	e12fff1e 	bx	lr

c00096f0 <delay_ms>:
#include "nixie_light.h"
unsigned char nums[10] = { 0xFC, 0x60, 0xDA, 0xF2, 0x66, 0xB6, 0xBE, 0xE0, 0xFE, 0xF6 };

void delay_ms(int ms)
{
c00096f0:	e52db004 	push	{fp}		; (str fp, [sp, #-4]!)
c00096f4:	e28db000 	add	fp, sp, #0
c00096f8:	e24dd00c 	sub	sp, sp, #12
c00096fc:	e50b000c 	str	r0, [fp, #-12]
    int i, j;
    for (i = 0; i < ms; i++)
c0009700:	e3a03000 	mov	r3, #0
c0009704:	e50b3004 	str	r3, [fp, #-4]
c0009708:	ea00000c 	b	c0009740 <delay_ms+0x50>
        for (j = 0; j < 1800; j++)
c000970c:	e3a03000 	mov	r3, #0
c0009710:	e50b3008 	str	r3, [fp, #-8]
c0009714:	ea000002 	b	c0009724 <delay_ms+0x34>
c0009718:	e51b3008 	ldr	r3, [fp, #-8]
c000971c:	e2833001 	add	r3, r3, #1
c0009720:	e50b3008 	str	r3, [fp, #-8]
c0009724:	e51b3008 	ldr	r3, [fp, #-8]
c0009728:	e3002707 	movw	r2, #1799	; 0x707
c000972c:	e1530002 	cmp	r3, r2
c0009730:	dafffff8 	ble	c0009718 <delay_ms+0x28>
    for (i = 0; i < ms; i++)
c0009734:	e51b3004 	ldr	r3, [fp, #-4]
c0009738:	e2833001 	add	r3, r3, #1
c000973c:	e50b3004 	str	r3, [fp, #-4]
c0009740:	e51b2004 	ldr	r2, [fp, #-4]
c0009744:	e51b300c 	ldr	r3, [fp, #-12]
c0009748:	e1520003 	cmp	r2, r3
c000974c:	baffffee 	blt	c000970c <delay_ms+0x1c>
            ;
}
c0009750:	e320f000 	nop	{0}
c0009754:	e28bd000 	add	sp, fp, #0
c0009758:	e49db004 	pop	{fp}		; (ldr fp, [sp], #4)
c000975c:	e12fff1e 	bx	lr

c0009760 <exam1>:
 * @param
 * @return
 * @note     0  0 0 0 每轮只显示4个数字，之一显示到 9 9 9 9
 */
void exam1()
{
c0009760:	e92d4800 	push	{fp, lr}
c0009764:	e28db004 	add	fp, sp, #4
c0009768:	e24dd004 	sub	sp, sp, #4
    unsigned char i;
    for (i = 0; i < 10; i++) {
c000976c:	e3a03000 	mov	r3, #0
c0009770:	e54b3005 	strb	r3, [fp, #-5]
c0009774:	ea00001c 	b	c00097ec <exam1+0x8c>
        SPI_write(0xFF); // 位选
c0009778:	e3a000ff 	mov	r0, #255	; 0xff
c000977c:	eb000106 	bl	c0009b9c <SPI_write>
        SPI_write(nums[i]); // 段选
c0009780:	e55b2005 	ldrb	r2, [fp, #-5]
c0009784:	e30a35f4 	movw	r3, #42484	; 0xa5f4
c0009788:	e34c3000 	movt	r3, #49152	; 0xc000
c000978c:	e7d33002 	ldrb	r3, [r3, r2]
c0009790:	e1a00003 	mov	r0, r3
c0009794:	eb000100 	bl	c0009b9c <SPI_write>
        NSS_OUTPUT_L();
c0009798:	e3a03a06 	mov	r3, #24576	; 0x6000
c000979c:	e3453000 	movt	r3, #20480	; 0x5000
c00097a0:	e5932014 	ldr	r2, [r3, #20]
c00097a4:	e3a03a06 	mov	r3, #24576	; 0x6000
c00097a8:	e3453000 	movt	r3, #20480	; 0x5000
c00097ac:	e3c22b02 	bic	r2, r2, #2048	; 0x800
c00097b0:	e5832014 	str	r2, [r3, #20]
        delay_ms(1);
c00097b4:	e3a00001 	mov	r0, #1
c00097b8:	ebffffcc 	bl	c00096f0 <delay_ms>
        NSS_OUTPUT_H();
c00097bc:	e3a03a06 	mov	r3, #24576	; 0x6000
c00097c0:	e3453000 	movt	r3, #20480	; 0x5000
c00097c4:	e5932014 	ldr	r2, [r3, #20]
c00097c8:	e3a03a06 	mov	r3, #24576	; 0x6000
c00097cc:	e3453000 	movt	r3, #20480	; 0x5000
c00097d0:	e3822b02 	orr	r2, r2, #2048	; 0x800
c00097d4:	e5832014 	str	r2, [r3, #20]
        delay_ms(1000);
c00097d8:	e3a00ffa 	mov	r0, #1000	; 0x3e8
c00097dc:	ebffffc3 	bl	c00096f0 <delay_ms>
    for (i = 0; i < 10; i++) {
c00097e0:	e55b3005 	ldrb	r3, [fp, #-5]
c00097e4:	e2833001 	add	r3, r3, #1
c00097e8:	e54b3005 	strb	r3, [fp, #-5]
c00097ec:	e55b3005 	ldrb	r3, [fp, #-5]
c00097f0:	e3530009 	cmp	r3, #9
c00097f4:	9affffdf 	bls	c0009778 <exam1+0x18>
    }
}
c00097f8:	e320f000 	nop	{0}
c00097fc:	e24bd004 	sub	sp, fp, #4
c0009800:	e8bd8800 	pop	{fp, pc}

c0009804 <exam2>:
 * @param
 * @return
 * @note     1 2 3 4 每次只显示1位
 */
void exam2()
{
c0009804:	e92d4800 	push	{fp, lr}
c0009808:	e28db004 	add	fp, sp, #4
c000980c:	e24dd004 	sub	sp, sp, #4
    unsigned char i;
    for (i = 0; i < 4; i++) {
c0009810:	e3a03000 	mov	r3, #0
c0009814:	e54b3005 	strb	r3, [fp, #-5]
c0009818:	ea000021 	b	c00098a4 <exam2+0xa0>
        SPI_write(0x80 >> i); // 位选
c000981c:	e55b3005 	ldrb	r3, [fp, #-5]
c0009820:	e3a02080 	mov	r2, #128	; 0x80
c0009824:	e1a03352 	asr	r3, r2, r3
c0009828:	e6ef3073 	uxtb	r3, r3
c000982c:	e1a00003 	mov	r0, r3
c0009830:	eb0000d9 	bl	c0009b9c <SPI_write>
        SPI_write(nums[i + 1]); // 段选
c0009834:	e55b3005 	ldrb	r3, [fp, #-5]
c0009838:	e2832001 	add	r2, r3, #1
c000983c:	e30a35f4 	movw	r3, #42484	; 0xa5f4
c0009840:	e34c3000 	movt	r3, #49152	; 0xc000
c0009844:	e7d33002 	ldrb	r3, [r3, r2]
c0009848:	e1a00003 	mov	r0, r3
c000984c:	eb0000d2 	bl	c0009b9c <SPI_write>
        NSS_OUTPUT_L();
c0009850:	e3a03a06 	mov	r3, #24576	; 0x6000
c0009854:	e3453000 	movt	r3, #20480	; 0x5000
c0009858:	e5932014 	ldr	r2, [r3, #20]
c000985c:	e3a03a06 	mov	r3, #24576	; 0x6000
c0009860:	e3453000 	movt	r3, #20480	; 0x5000
c0009864:	e3c22b02 	bic	r2, r2, #2048	; 0x800
c0009868:	e5832014 	str	r2, [r3, #20]
        delay_ms(1);
c000986c:	e3a00001 	mov	r0, #1
c0009870:	ebffff9e 	bl	c00096f0 <delay_ms>
        NSS_OUTPUT_H();
c0009874:	e3a03a06 	mov	r3, #24576	; 0x6000
c0009878:	e3453000 	movt	r3, #20480	; 0x5000
c000987c:	e5932014 	ldr	r2, [r3, #20]
c0009880:	e3a03a06 	mov	r3, #24576	; 0x6000
c0009884:	e3453000 	movt	r3, #20480	; 0x5000
c0009888:	e3822b02 	orr	r2, r2, #2048	; 0x800
c000988c:	e5832014 	str	r2, [r3, #20]
        delay_ms(1000);
c0009890:	e3a00ffa 	mov	r0, #1000	; 0x3e8
c0009894:	ebffff95 	bl	c00096f0 <delay_ms>
    for (i = 0; i < 4; i++) {
c0009898:	e55b3005 	ldrb	r3, [fp, #-5]
c000989c:	e2833001 	add	r3, r3, #1
c00098a0:	e54b3005 	strb	r3, [fp, #-5]
c00098a4:	e55b3005 	ldrb	r3, [fp, #-5]
c00098a8:	e3530003 	cmp	r3, #3
c00098ac:	9affffda 	bls	c000981c <exam2+0x18>
    }
c00098b0:	e320f000 	nop	{0}
c00098b4:	e24bd004 	sub	sp, fp, #4
c00098b8:	e8bd8800 	pop	{fp, pc}

c00098bc <do_irq>:
extern void printf(const char *fmt, ...);
unsigned int i = 0;
void do_irq(void) 
{
c00098bc:	e52db004 	push	{fp}		; (str fp, [sp, #-4]!)
c00098c0:	e28db000 	add	fp, sp, #0
}
c00098c4:	e320f000 	nop	{0}
c00098c8:	e28bd000 	add	sp, fp, #0
c00098cc:	e49db004 	pop	{fp}		; (ldr fp, [sp], #4)
c00098d0:	e12fff1e 	bx	lr

c00098d4 <delay_us1>:
 * 1 1 1 0 0 0 0 0    0xE0   7
 * 1 1 1 1 1 1 1 0    0xFE   8
 * 1 1 1 1 0 1 1 0    0xF6   9
 * */
void delay_us1(unsigned int us)
{
c00098d4:	e52db004 	push	{fp}		; (str fp, [sp, #-4]!)
c00098d8:	e28db000 	add	fp, sp, #0
c00098dc:	e24dd00c 	sub	sp, sp, #12
c00098e0:	e50b000c 	str	r0, [fp, #-12]
    int i, j;
    for (i = 0; i < us; i++)
c00098e4:	e3a03000 	mov	r3, #0
c00098e8:	e50b3004 	str	r3, [fp, #-4]
c00098ec:	ea00000b 	b	c0009920 <delay_us1+0x4c>
        for (j = 0; j < 1; j++)
c00098f0:	e3a03000 	mov	r3, #0
c00098f4:	e50b3008 	str	r3, [fp, #-8]
c00098f8:	ea000002 	b	c0009908 <delay_us1+0x34>
c00098fc:	e51b3008 	ldr	r3, [fp, #-8]
c0009900:	e2833001 	add	r3, r3, #1
c0009904:	e50b3008 	str	r3, [fp, #-8]
c0009908:	e51b3008 	ldr	r3, [fp, #-8]
c000990c:	e3530000 	cmp	r3, #0
c0009910:	dafffff9 	ble	c00098fc <delay_us1+0x28>
    for (i = 0; i < us; i++)
c0009914:	e51b3004 	ldr	r3, [fp, #-4]
c0009918:	e2833001 	add	r3, r3, #1
c000991c:	e50b3004 	str	r3, [fp, #-4]
c0009920:	e51b3004 	ldr	r3, [fp, #-4]
c0009924:	e51b200c 	ldr	r2, [fp, #-12]
c0009928:	e1520003 	cmp	r2, r3
c000992c:	8affffef 	bhi	c00098f0 <delay_us1+0x1c>
            ;
}
c0009930:	e320f000 	nop	{0}
c0009934:	e28bd000 	add	sp, fp, #0
c0009938:	e49db004 	pop	{fp}		; (ldr fp, [sp], #4)
c000993c:	e12fff1e 	bx	lr

c0009940 <SPI_init>:

void SPI_init(void)
{
c0009940:	e52db004 	push	{fp}		; (str fp, [sp, #-4]!)
c0009944:	e28db000 	add	fp, sp, #0
    RCC->MP_AHB4ENSETR |= (0x1 << 4);
c0009948:	e3a03205 	mov	r3, #1342177280	; 0x50000000
c000994c:	e5933a28 	ldr	r3, [r3, #2600]	; 0xa28
c0009950:	e3a02205 	mov	r2, #1342177280	; 0x50000000
c0009954:	e3833010 	orr	r3, r3, #16
c0009958:	e5823a28 	str	r3, [r2, #2600]	; 0xa28
    // MOSI    PE14
    GPIOE->MODER &= (~(0x3 << 28));
c000995c:	e3a03a06 	mov	r3, #24576	; 0x6000
c0009960:	e3453000 	movt	r3, #20480	; 0x5000
c0009964:	e5932000 	ldr	r2, [r3]
c0009968:	e3a03a06 	mov	r3, #24576	; 0x6000
c000996c:	e3453000 	movt	r3, #20480	; 0x5000
c0009970:	e3c22203 	bic	r2, r2, #805306368	; 0x30000000
c0009974:	e5832000 	str	r2, [r3]
    GPIOE->MODER |= (0x1 << 28);
c0009978:	e3a03a06 	mov	r3, #24576	; 0x6000
c000997c:	e3453000 	movt	r3, #20480	; 0x5000
c0009980:	e5932000 	ldr	r2, [r3]
c0009984:	e3a03a06 	mov	r3, #24576	; 0x6000
c0009988:	e3453000 	movt	r3, #20480	; 0x5000
c000998c:	e3822201 	orr	r2, r2, #268435456	; 0x10000000
c0009990:	e5832000 	str	r2, [r3]
    GPIOE->OTYPER &= (~(0x1 << 14));
c0009994:	e3a03a06 	mov	r3, #24576	; 0x6000
c0009998:	e3453000 	movt	r3, #20480	; 0x5000
c000999c:	e5932004 	ldr	r2, [r3, #4]
c00099a0:	e3a03a06 	mov	r3, #24576	; 0x6000
c00099a4:	e3453000 	movt	r3, #20480	; 0x5000
c00099a8:	e3c22901 	bic	r2, r2, #16384	; 0x4000
c00099ac:	e5832004 	str	r2, [r3, #4]
    GPIOE->OSPEEDR &= (~(0x3 << 28));
c00099b0:	e3a03a06 	mov	r3, #24576	; 0x6000
c00099b4:	e3453000 	movt	r3, #20480	; 0x5000
c00099b8:	e5932008 	ldr	r2, [r3, #8]
c00099bc:	e3a03a06 	mov	r3, #24576	; 0x6000
c00099c0:	e3453000 	movt	r3, #20480	; 0x5000
c00099c4:	e3c22203 	bic	r2, r2, #805306368	; 0x30000000
c00099c8:	e5832008 	str	r2, [r3, #8]
    GPIOE->PUPDR &= (~(0x3 << 28));
c00099cc:	e3a03a06 	mov	r3, #24576	; 0x6000
c00099d0:	e3453000 	movt	r3, #20480	; 0x5000
c00099d4:	e593200c 	ldr	r2, [r3, #12]
c00099d8:	e3a03a06 	mov	r3, #24576	; 0x6000
c00099dc:	e3453000 	movt	r3, #20480	; 0x5000
c00099e0:	e3c22203 	bic	r2, r2, #805306368	; 0x30000000
c00099e4:	e583200c 	str	r2, [r3, #12]
    // MISO    PE13
    GPIOE->MODER &= (~(0x3 << 26));
c00099e8:	e3a03a06 	mov	r3, #24576	; 0x6000
c00099ec:	e3453000 	movt	r3, #20480	; 0x5000
c00099f0:	e5932000 	ldr	r2, [r3]
c00099f4:	e3a03a06 	mov	r3, #24576	; 0x6000
c00099f8:	e3453000 	movt	r3, #20480	; 0x5000
c00099fc:	e3c22303 	bic	r2, r2, #201326592	; 0xc000000
c0009a00:	e5832000 	str	r2, [r3]
    GPIOE->OSPEEDR &= (~(0x3 << 26));
c0009a04:	e3a03a06 	mov	r3, #24576	; 0x6000
c0009a08:	e3453000 	movt	r3, #20480	; 0x5000
c0009a0c:	e5932008 	ldr	r2, [r3, #8]
c0009a10:	e3a03a06 	mov	r3, #24576	; 0x6000
c0009a14:	e3453000 	movt	r3, #20480	; 0x5000
c0009a18:	e3c22303 	bic	r2, r2, #201326592	; 0xc000000
c0009a1c:	e5832008 	str	r2, [r3, #8]
    GPIOE->PUPDR &= (~(0x3 << 26));
c0009a20:	e3a03a06 	mov	r3, #24576	; 0x6000
c0009a24:	e3453000 	movt	r3, #20480	; 0x5000
c0009a28:	e593200c 	ldr	r2, [r3, #12]
c0009a2c:	e3a03a06 	mov	r3, #24576	; 0x6000
c0009a30:	e3453000 	movt	r3, #20480	; 0x5000
c0009a34:	e3c22303 	bic	r2, r2, #201326592	; 0xc000000
c0009a38:	e583200c 	str	r2, [r3, #12]
    // SCK     PE12
    GPIOE->MODER &= (~(0x3 << 24));
c0009a3c:	e3a03a06 	mov	r3, #24576	; 0x6000
c0009a40:	e3453000 	movt	r3, #20480	; 0x5000
c0009a44:	e5932000 	ldr	r2, [r3]
c0009a48:	e3a03a06 	mov	r3, #24576	; 0x6000
c0009a4c:	e3453000 	movt	r3, #20480	; 0x5000
c0009a50:	e3c22403 	bic	r2, r2, #50331648	; 0x3000000
c0009a54:	e5832000 	str	r2, [r3]
    GPIOE->MODER |= (0x1 << 24);
c0009a58:	e3a03a06 	mov	r3, #24576	; 0x6000
c0009a5c:	e3453000 	movt	r3, #20480	; 0x5000
c0009a60:	e5932000 	ldr	r2, [r3]
c0009a64:	e3a03a06 	mov	r3, #24576	; 0x6000
c0009a68:	e3453000 	movt	r3, #20480	; 0x5000
c0009a6c:	e3822401 	orr	r2, r2, #16777216	; 0x1000000
c0009a70:	e5832000 	str	r2, [r3]
    GPIOE->OTYPER &= (~(0x1 << 12));
c0009a74:	e3a03a06 	mov	r3, #24576	; 0x6000
c0009a78:	e3453000 	movt	r3, #20480	; 0x5000
c0009a7c:	e5932004 	ldr	r2, [r3, #4]
c0009a80:	e3a03a06 	mov	r3, #24576	; 0x6000
c0009a84:	e3453000 	movt	r3, #20480	; 0x5000
c0009a88:	e3c22a01 	bic	r2, r2, #4096	; 0x1000
c0009a8c:	e5832004 	str	r2, [r3, #4]
    GPIOE->OSPEEDR &= (~(0x3 << 24));
c0009a90:	e3a03a06 	mov	r3, #24576	; 0x6000
c0009a94:	e3453000 	movt	r3, #20480	; 0x5000
c0009a98:	e5932008 	ldr	r2, [r3, #8]
c0009a9c:	e3a03a06 	mov	r3, #24576	; 0x6000
c0009aa0:	e3453000 	movt	r3, #20480	; 0x5000
c0009aa4:	e3c22403 	bic	r2, r2, #50331648	; 0x3000000
c0009aa8:	e5832008 	str	r2, [r3, #8]
    GPIOE->PUPDR &= (~(0x3 << 24));
c0009aac:	e3a03a06 	mov	r3, #24576	; 0x6000
c0009ab0:	e3453000 	movt	r3, #20480	; 0x5000
c0009ab4:	e593200c 	ldr	r2, [r3, #12]
c0009ab8:	e3a03a06 	mov	r3, #24576	; 0x6000
c0009abc:	e3453000 	movt	r3, #20480	; 0x5000
c0009ac0:	e3c22403 	bic	r2, r2, #50331648	; 0x3000000
c0009ac4:	e583200c 	str	r2, [r3, #12]
    // NSS     PE11
    GPIOE->MODER &= (~(0x3 << 22));
c0009ac8:	e3a03a06 	mov	r3, #24576	; 0x6000
c0009acc:	e3453000 	movt	r3, #20480	; 0x5000
c0009ad0:	e5932000 	ldr	r2, [r3]
c0009ad4:	e3a03a06 	mov	r3, #24576	; 0x6000
c0009ad8:	e3453000 	movt	r3, #20480	; 0x5000
c0009adc:	e3c22503 	bic	r2, r2, #12582912	; 0xc00000
c0009ae0:	e5832000 	str	r2, [r3]
    GPIOE->MODER |= (0x1 << 22);
c0009ae4:	e3a03a06 	mov	r3, #24576	; 0x6000
c0009ae8:	e3453000 	movt	r3, #20480	; 0x5000
c0009aec:	e5932000 	ldr	r2, [r3]
c0009af0:	e3a03a06 	mov	r3, #24576	; 0x6000
c0009af4:	e3453000 	movt	r3, #20480	; 0x5000
c0009af8:	e3822501 	orr	r2, r2, #4194304	; 0x400000
c0009afc:	e5832000 	str	r2, [r3]
    GPIOE->OTYPER &= (~(0x1 << 11));
c0009b00:	e3a03a06 	mov	r3, #24576	; 0x6000
c0009b04:	e3453000 	movt	r3, #20480	; 0x5000
c0009b08:	e5932004 	ldr	r2, [r3, #4]
c0009b0c:	e3a03a06 	mov	r3, #24576	; 0x6000
c0009b10:	e3453000 	movt	r3, #20480	; 0x5000
c0009b14:	e3c22b02 	bic	r2, r2, #2048	; 0x800
c0009b18:	e5832004 	str	r2, [r3, #4]
    GPIOE->OSPEEDR &= (~(0x3 << 22));
c0009b1c:	e3a03a06 	mov	r3, #24576	; 0x6000
c0009b20:	e3453000 	movt	r3, #20480	; 0x5000
c0009b24:	e5932008 	ldr	r2, [r3, #8]
c0009b28:	e3a03a06 	mov	r3, #24576	; 0x6000
c0009b2c:	e3453000 	movt	r3, #20480	; 0x5000
c0009b30:	e3c22503 	bic	r2, r2, #12582912	; 0xc00000
c0009b34:	e5832008 	str	r2, [r3, #8]
    GPIOE->PUPDR &= (~(0x3 << 22));
c0009b38:	e3a03a06 	mov	r3, #24576	; 0x6000
c0009b3c:	e3453000 	movt	r3, #20480	; 0x5000
c0009b40:	e593200c 	ldr	r2, [r3, #12]
c0009b44:	e3a03a06 	mov	r3, #24576	; 0x6000
c0009b48:	e3453000 	movt	r3, #20480	; 0x5000
c0009b4c:	e3c22503 	bic	r2, r2, #12582912	; 0xc00000
c0009b50:	e583200c 	str	r2, [r3, #12]
    NSS_OUTPUT_L(); // 595芯片的锁存引脚拉低
c0009b54:	e3a03a06 	mov	r3, #24576	; 0x6000
c0009b58:	e3453000 	movt	r3, #20480	; 0x5000
c0009b5c:	e5932014 	ldr	r2, [r3, #20]
c0009b60:	e3a03a06 	mov	r3, #24576	; 0x6000
c0009b64:	e3453000 	movt	r3, #20480	; 0x5000
c0009b68:	e3c22b02 	bic	r2, r2, #2048	; 0x800
c0009b6c:	e5832014 	str	r2, [r3, #20]
    SCK_OUTPUT_L(); // SPI的时钟线拉低
c0009b70:	e3a03a06 	mov	r3, #24576	; 0x6000
c0009b74:	e3453000 	movt	r3, #20480	; 0x5000
c0009b78:	e5932014 	ldr	r2, [r3, #20]
c0009b7c:	e3a03a06 	mov	r3, #24576	; 0x6000
c0009b80:	e3453000 	movt	r3, #20480	; 0x5000
c0009b84:	e3c22a01 	bic	r2, r2, #4096	; 0x1000
c0009b88:	e5832014 	str	r2, [r3, #20]
}
c0009b8c:	e320f000 	nop	{0}
c0009b90:	e28bd000 	add	sp, fp, #0
c0009b94:	e49db004 	pop	{fp}		; (ldr fp, [sp], #4)
c0009b98:	e12fff1e 	bx	lr

c0009b9c <SPI_write>:
                    通过NSS输出信号来选择从哪个从设备发送数据，
                    通过SCK时钟信号来控制数据的传输和采样。
            最后，通过for循环依次发送完所有的数据位。
*/
void SPI_write(unsigned char dat)
{
c0009b9c:	e92d4800 	push	{fp, lr}
c0009ba0:	e28db004 	add	fp, sp, #4
c0009ba4:	e24dd008 	sub	sp, sp, #8
c0009ba8:	e1a03000 	mov	r3, r0
c0009bac:	e54b300c 	strb	r3, [fp, #-12]
    unsigned char i;
    // 先发送低位，再发送高位
    for (i = 0; i < 8; i++) {
c0009bb0:	e3a03000 	mov	r3, #0
c0009bb4:	e54b3005 	strb	r3, [fp, #-5]
c0009bb8:	ea00002c 	b	c0009c70 <SPI_write+0xd4>
        // 发送数据的最低位
        if (dat & 0x01) {
c0009bbc:	e55b300c 	ldrb	r3, [fp, #-12]
c0009bc0:	e2033001 	and	r3, r3, #1
c0009bc4:	e3530000 	cmp	r3, #0
c0009bc8:	0a000007 	beq	c0009bec <SPI_write+0x50>
            MOSI_OUTPUT_H(); // MOSI输出高电平
c0009bcc:	e3a03a06 	mov	r3, #24576	; 0x6000
c0009bd0:	e3453000 	movt	r3, #20480	; 0x5000
c0009bd4:	e5932014 	ldr	r2, [r3, #20]
c0009bd8:	e3a03a06 	mov	r3, #24576	; 0x6000
c0009bdc:	e3453000 	movt	r3, #20480	; 0x5000
c0009be0:	e3822901 	orr	r2, r2, #16384	; 0x4000
c0009be4:	e5832014 	str	r2, [r3, #20]
c0009be8:	ea000006 	b	c0009c08 <SPI_write+0x6c>
        } else {
            MOSI_OUTPUT_L(); // MOSI输出低电平
c0009bec:	e3a03a06 	mov	r3, #24576	; 0x6000
c0009bf0:	e3453000 	movt	r3, #20480	; 0x5000
c0009bf4:	e5932014 	ldr	r2, [r3, #20]
c0009bf8:	e3a03a06 	mov	r3, #24576	; 0x6000
c0009bfc:	e3453000 	movt	r3, #20480	; 0x5000
c0009c00:	e3c22901 	bic	r2, r2, #16384	; 0x4000
c0009c04:	e5832014 	str	r2, [r3, #20]
        }
        delay_us1(1000);
c0009c08:	e3a00ffa 	mov	r0, #1000	; 0x3e8
c0009c0c:	ebffff30 	bl	c00098d4 <delay_us1>
        // 移位寄存器向右移一位，准备发送下一位数据
        dat >>= 1;
c0009c10:	e55b300c 	ldrb	r3, [fp, #-12]
c0009c14:	e1a030a3 	lsr	r3, r3, #1
c0009c18:	e54b300c 	strb	r3, [fp, #-12]
        // 时钟信号上升沿到下降沿之间，数据被采样
        SCK_OUTPUT_L();
c0009c1c:	e3a03a06 	mov	r3, #24576	; 0x6000
c0009c20:	e3453000 	movt	r3, #20480	; 0x5000
c0009c24:	e5932014 	ldr	r2, [r3, #20]
c0009c28:	e3a03a06 	mov	r3, #24576	; 0x6000
c0009c2c:	e3453000 	movt	r3, #20480	; 0x5000
c0009c30:	e3c22a01 	bic	r2, r2, #4096	; 0x1000
c0009c34:	e5832014 	str	r2, [r3, #20]
        delay_us1(10);
c0009c38:	e3a0000a 	mov	r0, #10
c0009c3c:	ebffff24 	bl	c00098d4 <delay_us1>
        // 时钟信号下降沿到上升沿之间，数据被传输
        SCK_OUTPUT_H();
c0009c40:	e3a03a06 	mov	r3, #24576	; 0x6000
c0009c44:	e3453000 	movt	r3, #20480	; 0x5000
c0009c48:	e5932014 	ldr	r2, [r3, #20]
c0009c4c:	e3a03a06 	mov	r3, #24576	; 0x6000
c0009c50:	e3453000 	movt	r3, #20480	; 0x5000
c0009c54:	e3822a01 	orr	r2, r2, #4096	; 0x1000
c0009c58:	e5832014 	str	r2, [r3, #20]
        delay_us1(10);
c0009c5c:	e3a0000a 	mov	r0, #10
c0009c60:	ebffff1b 	bl	c00098d4 <delay_us1>
    for (i = 0; i < 8; i++) {
c0009c64:	e55b3005 	ldrb	r3, [fp, #-5]
c0009c68:	e2833001 	add	r3, r3, #1
c0009c6c:	e54b3005 	strb	r3, [fp, #-5]
c0009c70:	e55b3005 	ldrb	r3, [fp, #-5]
c0009c74:	e3530007 	cmp	r3, #7
c0009c78:	9affffcf 	bls	c0009bbc <SPI_write+0x20>
        // 时钟信号上升沿到下降沿之间，NSS输出高电平
    }
c0009c7c:	e320f000 	nop	{0}
c0009c80:	e24bd004 	sub	sp, fp, #4
c0009c84:	e8bd8800 	pop	{fp, pc}

c0009c88 <main>:
#include "nixie_light.h"

extern void printf(const char *fmt, ...);

int main()
{
c0009c88:	e92d4800 	push	{fp, lr}
c0009c8c:	e28db004 	add	fp, sp, #4

    SPI_init();
c0009c90:	ebffff2a 	bl	c0009940 <SPI_init>
    while (1) {
        // exam1();
        exam2();
c0009c94:	ebfffeda 	bl	c0009804 <exam2>
c0009c98:	eafffffd 	b	c0009c94 <main+0xc>

Disassembly of section .rodata:

c0009c9c <.LC0>:
c0009c9c:	33323130 	teqcc	r2, #48, 2
c0009ca0:	37363534 			; <UNDEFINED> instruction: 0x37363534
c0009ca4:	62613938 	rsbvs	r3, r1, #56, 18	; 0xe0000
c0009ca8:	66656463 	strbtvs	r6, [r5], -r3, ror #8
c0009cac:	6a696867 	bvs	c1a63e50 <__bss_end__+0x1a5984c>
c0009cb0:	6e6d6c6b 	cdpvs	12, 6, cr6, cr13, cr11, {3}
c0009cb4:	7271706f 	rsbsvc	r7, r1, #111	; 0x6f
c0009cb8:	76757473 			; <UNDEFINED> instruction: 0x76757473
c0009cbc:	7a797877 	bvc	c1e67ea0 <__bss_end__+0x1e5d89c>
c0009cc0:	00000000 	andeq	r0, r0, r0

c0009cc4 <.LC1>:
c0009cc4:	33323130 	teqcc	r2, #48, 2
c0009cc8:	37363534 			; <UNDEFINED> instruction: 0x37363534
c0009ccc:	42413938 	submi	r3, r1, #56, 18	; 0xe0000
c0009cd0:	46454443 	strbmi	r4, [r5], -r3, asr #8
c0009cd4:	4a494847 	bmi	c125bdf8 <__bss_end__+0x12517f4>
c0009cd8:	4e4d4c4b 	cdpmi	12, 4, cr4, cr13, cr11, {2}
c0009cdc:	5251504f 	subspl	r5, r1, #79	; 0x4f
c0009ce0:	56555453 			; <UNDEFINED> instruction: 0x56555453
c0009ce4:	5a595857 	bpl	c165fe48 <__bss_end__+0x1655844>
c0009ce8:	00000000 	andeq	r0, r0, r0

c0009cec <.LC2>:
c0009cec:	4c554e3c 	mrrcmi	14, 3, r4, r5, cr12
c0009cf0:	地址 0xc0009cf0 越界。


Disassembly of section .data:

c0009cf4 <stack>:
	...

c000a4f4 <_ctype>:
c000a4f4:	08080808 	stmdaeq	r8, {r3, fp}
c000a4f8:	08080808 	stmdaeq	r8, {r3, fp}
c000a4fc:	28282808 	stmdacs	r8!, {r3, fp, sp}
c000a500:	08082828 	stmdaeq	r8, {r3, r5, fp, sp}
c000a504:	08080808 	stmdaeq	r8, {r3, fp}
c000a508:	08080808 	stmdaeq	r8, {r3, fp}
c000a50c:	08080808 	stmdaeq	r8, {r3, fp}
c000a510:	08080808 	stmdaeq	r8, {r3, fp}
c000a514:	101010a0 	andsne	r1, r0, r0, lsr #1
c000a518:	10101010 	andsne	r1, r0, r0, lsl r0
c000a51c:	10101010 	andsne	r1, r0, r0, lsl r0
c000a520:	10101010 	andsne	r1, r0, r0, lsl r0
c000a524:	04040404 	streq	r0, [r4], #-1028	; 0xfffffbfc
c000a528:	04040404 	streq	r0, [r4], #-1028	; 0xfffffbfc
c000a52c:	10100404 	andsne	r0, r0, r4, lsl #8
c000a530:	10101010 	andsne	r1, r0, r0, lsl r0
c000a534:	41414110 	cmpmi	r1, r0, lsl r1
c000a538:	01414141 	cmpeq	r1, r1, asr #2
c000a53c:	01010101 	tsteq	r1, r1, lsl #2
c000a540:	01010101 	tsteq	r1, r1, lsl #2
c000a544:	01010101 	tsteq	r1, r1, lsl #2
c000a548:	01010101 	tsteq	r1, r1, lsl #2
c000a54c:	10010101 	andne	r0, r1, r1, lsl #2
c000a550:	10101010 	andsne	r1, r0, r0, lsl r0
c000a554:	42424210 	submi	r4, r2, #16, 4
c000a558:	02424242 	subeq	r4, r2, #536870916	; 0x20000004
c000a55c:	02020202 	andeq	r0, r2, #536870912	; 0x20000000
c000a560:	02020202 	andeq	r0, r2, #536870912	; 0x20000000
c000a564:	02020202 	andeq	r0, r2, #536870912	; 0x20000000
c000a568:	02020202 	andeq	r0, r2, #536870912	; 0x20000000
c000a56c:	10020202 	andne	r0, r2, r2, lsl #4
c000a570:	08101010 	ldmdaeq	r0, {r4, ip}
	...
c000a594:	101010a0 	andsne	r1, r0, r0, lsr #1
c000a598:	10101010 	andsne	r1, r0, r0, lsl r0
c000a59c:	10101010 	andsne	r1, r0, r0, lsl r0
c000a5a0:	10101010 	andsne	r1, r0, r0, lsl r0
c000a5a4:	10101010 	andsne	r1, r0, r0, lsl r0
c000a5a8:	10101010 	andsne	r1, r0, r0, lsl r0
c000a5ac:	10101010 	andsne	r1, r0, r0, lsl r0
c000a5b0:	10101010 	andsne	r1, r0, r0, lsl r0
c000a5b4:	01010101 	tsteq	r1, r1, lsl #2
c000a5b8:	01010101 	tsteq	r1, r1, lsl #2
c000a5bc:	01010101 	tsteq	r1, r1, lsl #2
c000a5c0:	01010101 	tsteq	r1, r1, lsl #2
c000a5c4:	01010101 	tsteq	r1, r1, lsl #2
c000a5c8:	10010101 	andne	r0, r1, r1, lsl #2
c000a5cc:	01010101 	tsteq	r1, r1, lsl #2
c000a5d0:	02010101 	andeq	r0, r1, #1073741824	; 0x40000000
c000a5d4:	02020202 	andeq	r0, r2, #536870912	; 0x20000000
c000a5d8:	02020202 	andeq	r0, r2, #536870912	; 0x20000000
c000a5dc:	02020202 	andeq	r0, r2, #536870912	; 0x20000000
c000a5e0:	02020202 	andeq	r0, r2, #536870912	; 0x20000000
c000a5e4:	02020202 	andeq	r0, r2, #536870912	; 0x20000000
c000a5e8:	10020202 	andne	r0, r2, r2, lsl #4
c000a5ec:	02020202 	andeq	r0, r2, #536870912	; 0x20000000
c000a5f0:	02020202 	andeq	r0, r2, #536870912	; 0x20000000

c000a5f4 <nums>:
c000a5f4:	f2da60fc 	vshr.s64	q11, q14, #38
c000a5f8:	e0beb666 	adcs	fp, lr, r6, ror #12
c000a5fc:	地址 0xc000a5fc 越界。


Disassembly of section .bss:

c000a600 <i>:
c000a600:	00000000 	andeq	r0, r0, r0

Disassembly of section .ARM.attributes:

00000000 <.ARM.attributes>:
   0:	00002041 	andeq	r2, r0, r1, asr #32
   4:	61656100 	cmnvs	r5, r0, lsl #2
   8:	01006962 	tsteq	r0, r2, ror #18
   c:	00000016 	andeq	r0, r0, r6, lsl r0
  10:	412d3705 			; <UNDEFINED> instruction: 0x412d3705
  14:	070a0600 	streq	r0, [sl, -r0, lsl #12]
  18:	09010841 	stmdbeq	r1, {r0, r6, fp}
  1c:	0c030a02 			; <UNDEFINED> instruction: 0x0c030a02
  20:	地址 0x00000020 越界。


Disassembly of section .comment:

00000000 <.comment>:
   0:	3a434347 	bcc	10d0d24 <_start-0xbef372dc>
   4:	694c2820 	stmdbvs	ip, {r5, fp, sp}^
   8:	6f72616e 	svcvs	0x0072616e
   c:	43434720 	movtmi	r4, #14112	; 0x3720
  10:	352e3720 	strcc	r3, [lr, #-1824]!	; 0xfffff8e0
  14:	3130322d 	teqcc	r0, sp, lsr #4
  18:	32312e39 	eorscc	r2, r1, #912	; 0x390
  1c:	2e372029 	cdpcs	0, 3, cr2, cr7, cr9, {1}
  20:	00302e35 	eorseq	r2, r0, r5, lsr lr

Disassembly of section .debug_line:

00000000 <.debug_line>:
   0:	00000093 	muleq	r0, r3, r0
   4:	00240002 	eoreq	r0, r4, r2
   8:	01020000 	mrseq	r0, (UNDEF: 2)
   c:	000d0efb 	strdeq	r0, [sp], -fp
  10:	01010101 	tsteq	r1, r1, lsl #2
  14:	01000000 	mrseq	r0, (UNDEF: 0)
  18:	73010000 	movwvc	r0, #4096	; 0x1000
  1c:	74726174 	ldrbtvc	r6, [r2], #-372	; 0xfffffe8c
  20:	74730000 	ldrbtvc	r0, [r3], #-0
  24:	2e747261 	cdpcs	2, 7, cr7, cr4, cr1, {3}
  28:	00010053 	andeq	r0, r1, r3, asr r0
  2c:	05000000 	streq	r0, [r0, #-0]
  30:	00800002 	addeq	r0, r0, r2
  34:	011b03c0 	tsteq	fp, r0, asr #7
  38:	2f2f2f2f 	svccs	0x002f2f2f
  3c:	032f2f2f 			; <UNDEFINED> instruction: 0x032f2f2f
  40:	2f2ff215 	svccs	0x002ff215
  44:	2f312f2f 	svccs	0x00312f2f
  48:	2f312f2f 	svccs	0x00312f2f
  4c:	2f2f2f2f 	svccs	0x002f2f2f
  50:	2f2f312f 	svccs	0x002f312f
  54:	2f2f2f2f 	svccs	0x002f2f2f
  58:	2f2f312f 	svccs	0x002f312f
  5c:	2f2f2f31 	svccs	0x002f2f31
  60:	332f2f2f 			; <UNDEFINED> instruction: 0x332f2f2f
  64:	2f302f31 	svccs	0x00302f31
  68:	2f2f302f 	svccs	0x002f302f
  6c:	302f2f30 	eorcc	r2, pc, r0, lsr pc	; <UNPREDICTABLE>
  70:	2f302f2f 	svccs	0x00302f2f
  74:	302f2f32 	eorcc	r2, pc, r2, lsr pc	; <UNPREDICTABLE>
  78:	312f2f2f 			; <UNDEFINED> instruction: 0x312f2f2f
  7c:	f6f6f6de 			; <UNDEFINED> instruction: 0xf6f6f6de
  80:	2f2ff7f6 	svccs	0x002ff7f6
  84:	8903a32f 	stmdbhi	r3, {r0, r1, r2, r3, r5, r8, r9, sp, pc}
  88:	c8034a7f 	stmdagt	r3, {r0, r1, r2, r3, r4, r5, r6, r9, fp, lr}
  8c:	032f2e00 			; <UNDEFINED> instruction: 0x032f2e00
  90:	02022e09 	andeq	r2, r2, #9, 28	; 0x90
  94:	6c010100 	stfvss	f0, [r1], {-0}
  98:	02000000 	andeq	r0, r0, #0
  9c:	00002c00 	andeq	r2, r0, r0, lsl #24
  a0:	fb010200 	blx	408aa <_start-0xbffc7756>
  a4:	01000d0e 	tsteq	r0, lr, lsl #26
  a8:	00010101 	andeq	r0, r1, r1, lsl #2
  ac:	00010000 	andeq	r0, r1, r0
  b0:	6f630100 	svcvs	0x00630100
  b4:	6e6f6d6d 	cdpvs	13, 6, cr6, cr15, cr13, {3}
  b8:	6372732f 	cmnvs	r2, #-1140850688	; 0xbc000000
  bc:	755f0000 	ldrbvc	r0, [pc, #-0]	; c4 <_start-0xc0007f3c>
  c0:	73646f6d 	cmnvc	r4, #436	; 0x1b4
  c4:	532e3369 			; <UNDEFINED> instruction: 0x532e3369
  c8:	00000100 	andeq	r0, r0, r0, lsl #2
  cc:	02050000 	andeq	r0, r5, #0
  d0:	c0008218 	andgt	r8, r0, r8, lsl r2
  d4:	2f011203 	svccs	0x00011203
  d8:	342f2f2f 	strtcc	r2, [pc], #-3887	; e0 <_start-0xc0007f20>
  dc:	2f2f2f2f 	svccs	0x002f2f2f
  e0:	2f2f2f32 	svccs	0x002f2f32
  e4:	2f2f332f 	svccs	0x002f332f
  e8:	2f2f2f2f 	svccs	0x002f2f2f
  ec:	2f2f2f2f 	svccs	0x002f2f2f
  f0:	2f2f2f2f 	svccs	0x002f2f2f
  f4:	2f352f2f 	svccs	0x00352f2f
  f8:	2f2f2f2f 	svccs	0x002f2f2f
  fc:	302f2f2f 	eorcc	r2, pc, pc, lsr #30
 100:	02022f30 	andeq	r2, r2, #48, 30	; 0xc0
 104:	65010100 	strvs	r0, [r1, #-256]	; 0xffffff00
 108:	02000000 	andeq	r0, r0, #0
 10c:	00002c00 	andeq	r2, r0, r0, lsl #24
 110:	fb010200 	blx	4091a <_start-0xbffc76e6>
 114:	01000d0e 	tsteq	r0, lr, lsl #26
 118:	00010101 	andeq	r0, r1, r1, lsl #2
 11c:	00010000 	andeq	r0, r1, r0
 120:	6f630100 	svcvs	0x00630100
 124:	6e6f6d6d 	cdpvs	13, 6, cr6, cr15, cr13, {3}
 128:	6372732f 	cmnvs	r2, #-1140850688	; 0xbc000000
 12c:	755f0000 	ldrbvc	r0, [pc, #-0]	; 134 <_start-0xc0007ecc>
 130:	73766964 	cmnvc	r6, #100, 18	; 0x190000
 134:	532e3369 			; <UNDEFINED> instruction: 0x532e3369
 138:	00000100 	andeq	r0, r0, r0, lsl #2
 13c:	02050000 	andeq	r0, r5, #0
 140:	c00082c8 	andgt	r8, r0, r8, asr #5
 144:	2f011103 	svccs	0x00011103
 148:	2f2f2f2f 	svccs	0x002f2f2f
 14c:	2f2f2f34 	svccs	0x002f2f34
 150:	2f2f322f 	svccs	0x002f322f
 154:	2f342f2f 	svccs	0x00342f2f
 158:	2f2f2f2f 	svccs	0x002f2f2f
 15c:	2f2f2f2f 	svccs	0x002f2f2f
 160:	2f2f2f2f 	svccs	0x002f2f2f
 164:	2f302f2f 	svccs	0x00302f2f
 168:	022f3030 	eoreq	r3, pc, #48	; 0x30
 16c:	01010002 	tsteq	r1, r2
 170:	0000022e 	andeq	r0, r0, lr, lsr #4
 174:	00520002 	subseq	r0, r2, r2
 178:	01020000 	mrseq	r0, (UNDEF: 2)
 17c:	000d0efb 	strdeq	r0, [sp], -fp
 180:	01010101 	tsteq	r1, r1, lsl #2
 184:	01000000 	mrseq	r0, (UNDEF: 0)
 188:	2e010000 	cdpcs	0, 0, cr0, cr1, cr0, {0}
 18c:	6d6f632f 	stclvs	3, cr6, [pc, #-188]!	; d8 <_start-0xc0007f28>
 190:	2f6e6f6d 	svccs	0x006e6f6d
 194:	6c636e69 	stclvs	14, cr6, [r3], #-420	; 0xfffffe5c
 198:	00656475 	rsbeq	r6, r5, r5, ror r4
 19c:	6d6d6f63 	stclvs	15, cr6, [sp, #-396]!	; 0xfffffe74
 1a0:	732f6e6f 			; <UNDEFINED> instruction: 0x732f6e6f
 1a4:	00006372 	andeq	r6, r0, r2, ror r3
 1a8:	70797463 	rsbsvc	r7, r9, r3, ror #8
 1ac:	00682e65 	rsbeq	r2, r8, r5, ror #28
 1b0:	70000001 	andvc	r0, r0, r1
 1b4:	746e6972 	strbtvc	r6, [lr], #-2418	; 0xfffff68e
 1b8:	00632e66 	rsbeq	r2, r3, r6, ror #28
 1bc:	73000002 	movwvc	r0, #2
 1c0:	72616474 	rsbvc	r6, r1, #116, 8	; 0x74000000
 1c4:	00682e67 	rsbeq	r2, r8, r7, ror #28
 1c8:	00000001 	andeq	r0, r0, r1
 1cc:	5c020500 	cfstr32pl	mvfx0, [r2], {-0}
 1d0:	03c00083 	biceq	r0, r0, #131	; 0x83
 1d4:	9f0100c4 	svcls	0x000100c4
 1d8:	042f67d7 	strteq	r6, [pc], #-2007	; 1e0 <_start-0xc0007e20>
 1dc:	7fbe0302 	svcvc	0x00be0302
 1e0:	834cbb82 	movthi	fp, #52098	; 0xcb82
 1e4:	04020067 	streq	r0, [r2], #-103	; 0xffffff99
 1e8:	06820601 	streq	r0, [r2], r1, lsl #12
 1ec:	684b3d08 	stmdavs	fp, {r3, r8, sl, fp, ip, sp}^
 1f0:	4c674d67 	stclmi	13, cr4, [r7], #-412	; 0xfffffe64
 1f4:	0063bb30 	rsbeq	fp, r3, r0, lsr fp
 1f8:	06010402 	streq	r0, [r1], -r2, lsl #8
 1fc:	02002008 	andeq	r2, r0, #8
 200:	20080204 	andcs	r0, r8, r4, lsl #4
 204:	03040200 	movweq	r0, #16896	; 0x4200
 208:	04020082 	streq	r0, [r2], #-130	; 0xffffff7e
 20c:	21080605 	tstcs	r8, r5, lsl #12
 210:	06040200 	streq	r0, [r4], -r0, lsl #4
 214:	0200d606 	andeq	sp, r0, #6291456	; 0x600000
 218:	65060904 	strvs	r0, [r6, #-2308]	; 0xfffff6fc
 21c:	2f6767a3 	svccs	0x006767a3
 220:	0883bb69 	stmeq	r3, {r0, r3, r5, r6, r8, r9, fp, ip, sp, pc}
 224:	24039f21 	strcs	r9, [r3], #-3873	; 0xfffff0df
 228:	2f4c8366 	svccs	0x004c8366
 22c:	0200c708 	andeq	ip, r0, #8, 14	; 0x200000
 230:	9e060104 	adflss	f0, f6, f4
 234:	032fa006 			; <UNDEFINED> instruction: 0x032fa006
 238:	69d88220 	ldmibvs	r8, {r5, r9, pc}^
 23c:	67836783 	strvs	r6, [r3, r3, lsl #15]
 240:	01040200 	mrseq	r0, R12_usr
 244:	67066606 	strvs	r6, [r6, -r6, lsl #12]
 248:	0402004b 	streq	r0, [r2], #-75	; 0xffffffb5
 24c:	00820601 	addeq	r0, r2, r1, lsl #12
 250:	4a020402 	bmi	81260 <_start-0xbff86da0>
 254:	04040200 	streq	r0, [r4], #-512	; 0xfffffe00
 258:	0402002e 	streq	r0, [r2], #-46	; 0xffffffd2
 25c:	002f0604 	eoreq	r0, pc, r4, lsl #12
 260:	4b040402 	blmi	101270 <_start-0xbff06d90>
 264:	674b6783 	strbvs	r6, [fp, -r3, lsl #15]
 268:	834b8383 	movthi	r8, #45955	; 0xb383
 26c:	83694b83 	cmnhi	r9, #134144	; 0x20c00
 270:	68678367 	stmdavs	r7!, {r0, r1, r2, r5, r6, r8, r9, pc}^
 274:	83f4674b 	mvnshi	r6, #19660800	; 0x12c0000
 278:	69102e02 	ldmdbvs	r0, {r1, r9, sl, fp, sp}
 27c:	2f83834b 	svccs	0x0083834b
 280:	9f67a09d 	svcls	0x0067a09d
 284:	67bb6783 	ldrvs	r6, [fp, r3, lsl #15]!
 288:	2f83bd9f 	svccs	0x0083bd9f
 28c:	9d2fa09d 	stcls	0, cr10, [pc, #-628]!	; 20 <_start-0xc0007fe0>
 290:	a0f12fbc 	ldrhtge	r2, [r1], #252	; 0xfc
 294:	00a09d2f 	adceq	r9, r0, pc, lsr #26
 298:	2f010402 	svccs	0x00010402
 29c:	0200a16b 	andeq	sl, r0, #-1073741798	; 0xc000001a
 2a0:	66060404 	strvs	r0, [r6], -r4, lsl #8
 2a4:	01040200 	mrseq	r0, R12_usr
 2a8:	04020066 	streq	r0, [r2], #-102	; 0xffffff9a
 2ac:	84069e03 	strhi	r9, [r6], #-3587	; 0xfffff1fd
 2b0:	12038467 	andne	r8, r3, #1728053248	; 0x67000000
 2b4:	bb8367ba 	bllt	fe0da1a4 <__bss_end__+0x3e0cfba0>
 2b8:	02674c32 	rsbeq	r4, r7, #12800	; 0x3200
 2bc:	8383132e 	orrhi	r1, r3, #-1207959552	; 0xb8000000
 2c0:	4b868383 	blmi	fe1a10d4 <__bss_end__+0x3e196ad0>
 2c4:	01040200 	mrseq	r0, R12_usr
 2c8:	83068206 	movwhi	r8, #25094	; 0x6206
 2cc:	9f68839f 	svcls	0x0068839f
 2d0:	4b6b6767 	blmi	1ada074 <_start-0xbe52df8c>
 2d4:	02006783 	andeq	r6, r0, #34340864	; 0x20c0000
 2d8:	82060104 	andhi	r0, r6, #4, 2
 2dc:	839f8306 	orrshi	r8, pc, #402653184	; 0x18000000
 2e0:	4e67a068 	cdpmi	0, 6, cr10, cr7, cr8, {3}
 2e4:	0402004b 	streq	r0, [r2], #-75	; 0xffffffb5
 2e8:	00820601 	addeq	r0, r2, r1, lsl #12
 2ec:	82020402 	andhi	r0, r2, #33554432	; 0x2000000
 2f0:	03040200 	movweq	r0, #16896	; 0x4200
 2f4:	02008306 	andeq	r8, r0, #402653184	; 0x18000000
 2f8:	4b490304 	blmi	1240f10 <_start-0xbedc70f0>
 2fc:	01040200 	mrseq	r0, R12_usr
 300:	02008206 	andeq	r8, r0, #1610612736	; 0x60000000
 304:	83060204 	movwhi	r0, #25092	; 0x6204
 308:	02040200 	andeq	r0, r4, #0, 4
 30c:	00674c49 	rsbeq	r4, r7, r9, asr #24
 310:	06010402 	streq	r0, [r1], -r2, lsl #8
 314:	4b9f0666 	blmi	fe7c1cb4 <__bss_end__+0x3e7b76b0>
 318:	024c6a68 	subeq	r6, ip, #104, 20	; 0x68000
 31c:	831401b4 	tsthi	r4, #180, 2	; 0x2d
 320:	08bc9d2f 	ldmeq	ip!, {r0, r1, r2, r3, r5, r8, sl, fp, ip, pc}
 324:	bc9d2f21 	ldclt	15, cr2, [sp], {33}	; 0x21
 328:	68679f31 	stmdavs	r7!, {r0, r4, r5, r8, r9, sl, fp, ip, pc}^
 32c:	9d2f83bc 	stcls	3, cr8, [pc, #-752]!	; 44 <_start-0xc0007fbc>
 330:	040200bc 	streq	r0, [r2], #-188	; 0xffffff44
 334:	02006703 	andeq	r6, r0, #786432	; 0xc0000
 338:	00f10304 	rscseq	r0, r1, r4, lsl #6
 33c:	06010402 	streq	r0, [r1], -r2, lsl #8
 340:	2f840666 	svccs	0x00840666
 344:	6731bc9d 			; <UNDEFINED> instruction: 0x6731bc9d
 348:	0881694b 	stmeq	r1, {r0, r1, r3, r6, r8, fp, sp, lr}
 34c:	9f67323f 	svcls	0x0067323f
 350:	a09f2ba3 	addsge	r2, pc, r3, lsr #23
 354:	4b329f31 	blmi	ca8020 <_start-0xbf35ffe0>
 358:	324b6831 	subcc	r6, fp, #3211264	; 0x310000
 35c:	839f3168 	orrshi	r3, pc, #104, 2
 360:	03672dbd 	cmneq	r7, #12096	; 0x2f40
 364:	0f032e78 	svceq	0x00032e78
 368:	00bb672e 	adcseq	r6, fp, lr, lsr #14
 36c:	06010402 	streq	r0, [r1], -r2, lsl #8
 370:	bb670666 	bllt	19c1d10 <_start-0xbe6462f0>
 374:	bb67bb67 	bllt	19ef118 <_start-0xbe618ee8>
 378:	bc838383 	stclt	3, cr8, [r3], {131}	; 0x83
 37c:	0402009f 	streq	r0, [r2], #-159	; 0xffffff61
 380:	7ee20302 	cdpvc	3, 14, cr0, cr2, cr2, {0}
 384:	02003c08 	andeq	r3, r0, #8, 24	; 0x800
 388:	66060104 	strvs	r0, [r6], -r4, lsl #2
 38c:	01a00306 	lsleq	r0, r6, #6
 390:	69676782 	stmdbvs	r7!, {r1, r7, r8, r9, sl, sp, lr}^
 394:	2fbc4ba2 	svccs	0x00bc4ba2
 398:	a04f85a1 	subge	r8, pc, r1, lsr #11
 39c:	000a0267 	andeq	r0, sl, r7, ror #4
 3a0:	00a60101 	adceq	r0, r6, r1, lsl #2
 3a4:	00020000 	andeq	r0, r2, r0
 3a8:	00000063 	andeq	r0, r0, r3, rrx
 3ac:	0efb0102 	cdpeq	1, 15, cr0, cr11, cr2, {0}
 3b0:	0101000d 	tsteq	r1, sp
 3b4:	00000101 	andeq	r0, r0, r1, lsl #2
 3b8:	00000100 	andeq	r0, r0, r0, lsl #2
 3bc:	6d6f6301 	stclvs	3, cr6, [pc, #-4]!	; 3c0 <_start-0xc0007c40>
 3c0:	2f6e6f6d 	svccs	0x006e6f6d
 3c4:	00637273 	rsbeq	r7, r3, r3, ror r2
 3c8:	6f632f2e 	svcvs	0x00632f2e
 3cc:	6e6f6d6d 	cdpvs	13, 6, cr6, cr15, cr13, {3}
 3d0:	636e692f 	cmnvs	lr, #770048	; 0xbc000
 3d4:	6564756c 	strbvs	r7, [r4, #-1388]!	; 0xfffffa94
 3d8:	61750000 	cmnvs	r5, r0
 3dc:	632e7472 			; <UNDEFINED> instruction: 0x632e7472
 3e0:	00000100 	andeq	r0, r0, r0, lsl #2
 3e4:	336d7473 	cmncc	sp, #1929379840	; 0x73000000
 3e8:	31706d32 	cmncc	r0, r2, lsr sp
 3ec:	675f7878 			; <UNDEFINED> instruction: 0x675f7878
 3f0:	2e6f6970 			; <UNDEFINED> instruction: 0x2e6f6970
 3f4:	00020068 	andeq	r0, r2, r8, rrx
 3f8:	6d747300 	ldclvs	3, cr7, [r4, #-0]
 3fc:	706d3233 	rsbvc	r3, sp, r3, lsr r2
 400:	5f787831 	svcpl	0x00787831
 404:	74726175 	ldrbtvc	r6, [r2], #-373	; 0xfffffe8b
 408:	0200682e 	andeq	r6, r0, #3014656	; 0x2e0000
 40c:	00000000 	andeq	r0, r0, r0
 410:	94140205 	ldrls	r0, [r4], #-517	; 0xfffffdfb
 414:	4c17c000 	ldcmi	0, cr12, [r7], {-0}
 418:	d8d7d7d7 	ldmle	r7, {r0, r1, r2, r4, r6, r7, r8, r9, sl, ip, lr, pc}^
 41c:	d8d7d7d7 	ldmle	r7, {r0, r1, r2, r4, r6, r7, r8, r9, sl, ip, lr, pc}^
 420:	d7d8d8d7 			; <UNDEFINED> instruction: 0xd7d8d8d7
 424:	d7d8d884 	ldrble	sp, [r8, r4, lsl #17]
 428:	009f85d8 			; <UNDEFINED> instruction: 0x009f85d8
 42c:	06010402 	streq	r0, [r1], -r2, lsl #8
 430:	83bb062e 			; <UNDEFINED> instruction: 0x83bb062e
 434:	83684b67 	cmnhi	r8, #105472	; 0x19c00
 438:	6984b92f 	stmibvs	r4, {r0, r1, r2, r3, r5, r8, fp, ip, sp, pc}
 43c:	04020068 	streq	r0, [r2], #-104	; 0xffffff98
 440:	062e0601 	strteq	r0, [lr], -r1, lsl #12
 444:	022f83bb 	eoreq	r8, pc, #-335544318	; 0xec000002
 448:	01010008 	tsteq	r1, r8
 44c:	000000de 	ldrdeq	r0, [r0], -lr
 450:	004e0002 	subeq	r0, lr, r2
 454:	01020000 	mrseq	r0, (UNDEF: 2)
 458:	000d0efb 	strdeq	r0, [sp], -fp
 45c:	01010101 	tsteq	r1, r1, lsl #2
 460:	01000000 	mrseq	r0, (UNDEF: 0)
 464:	73010000 	movwvc	r0, #4096	; 0x1000
 468:	2e006372 	mcrcs	3, 0, r6, cr0, cr2, {3}
 46c:	6d6f632f 	stclvs	3, cr6, [pc, #-188]!	; 3b8 <_start-0xc0007c48>
 470:	2f6e6f6d 	svccs	0x006e6f6d
 474:	6c636e69 	stclvs	14, cr6, [r3], #-420	; 0xfffffe5c
 478:	00656475 	rsbeq	r6, r5, r5, ror r4
 47c:	78696e00 	stmdavc	r9!, {r9, sl, fp, sp, lr}^
 480:	6c5f6569 	cfldr64vs	mvdx6, [pc], {105}	; 0x69
 484:	74686769 	strbtvc	r6, [r8], #-1897	; 0xfffff897
 488:	0100632e 	tsteq	r0, lr, lsr #6
 48c:	74730000 	ldrbtvc	r0, [r3], #-0
 490:	6d32336d 	ldcvs	3, cr3, [r2, #-436]!	; 0xfffffe4c
 494:	78783170 	ldmdavc	r8!, {r4, r5, r6, r8, ip, sp}^
 498:	6970675f 	ldmdbvs	r0!, {r0, r1, r2, r3, r4, r6, r8, r9, sl, sp, lr}^
 49c:	00682e6f 	rsbeq	r2, r8, pc, ror #28
 4a0:	00000002 	andeq	r0, r0, r2
 4a4:	f0020500 			; <UNDEFINED> instruction: 0xf0020500
 4a8:	16c00096 			; <UNDEFINED> instruction: 0x16c00096
 4ac:	02006784 	andeq	r6, r0, #132, 14	; 0x2100000
 4b0:	66060304 	strvs	r0, [r6], -r4, lsl #6
 4b4:	01040200 	mrseq	r0, R12_usr
 4b8:	04020066 	streq	r0, [r2], #-102	; 0xffffff9a
 4bc:	00810602 	addeq	r0, r1, r2, lsl #12
 4c0:	06010402 	streq	r0, [r1], -r2, lsl #8
 4c4:	03850666 	orreq	r0, r5, #106954752	; 0x6600000
 4c8:	00688209 	rsbeq	r8, r8, r9, lsl #4
 4cc:	67030402 	strvs	r0, [r3, -r2, lsl #8]
 4d0:	03040200 	movweq	r0, #16896	; 0x4200
 4d4:	0402004b 	streq	r0, [r2], #-75	; 0xffffffb5
 4d8:	0200bb03 	andeq	fp, r0, #3072	; 0xc00
 4dc:	00d70304 	sbcseq	r0, r7, r4, lsl #6
 4e0:	4b030402 	blmi	c14f0 <_start-0xbff46b10>
 4e4:	03040200 	movweq	r0, #16896	; 0x4200
 4e8:	040200d7 	streq	r0, [r2], #-215	; 0xffffff29
 4ec:	4a7a0303 	bmi	1e81100 <_start-0xbe186f00>
 4f0:	01040200 	mrseq	r0, R12_usr
 4f4:	6e066606 	cfmadd32vs	mvax0, mvfx6, mvfx6, mvfx6
 4f8:	68660903 	stmdavs	r6!, {r0, r1, r8, fp}^
 4fc:	03040200 	movweq	r0, #16896	; 0x4200
 500:	04020067 	streq	r0, [r2], #-103	; 0xffffff99
 504:	0200bb03 	andeq	fp, r0, #3072	; 0xc00
 508:	00d70304 	sbcseq	r0, r7, r4, lsl #6
 50c:	d7030402 	strle	r0, [r3, -r2, lsl #8]
 510:	03040200 	movweq	r0, #16896	; 0x4200
 514:	0402004b 	streq	r0, [r2], #-75	; 0xffffffb5
 518:	0200d703 	andeq	sp, r0, #786432	; 0xc0000
 51c:	7a030304 	bvc	c1134 <_start-0xbff46ecc>
 520:	0402004a 	streq	r0, [r2], #-74	; 0xffffffb6
 524:	06660601 	strbteq	r0, [r6], -r1, lsl #12
 528:	0006026e 	andeq	r0, r6, lr, ror #4
 52c:	00370101 	eorseq	r0, r7, r1, lsl #2
 530:	00020000 	andeq	r0, r2, r0
 534:	00000023 	andeq	r0, r0, r3, lsr #32
 538:	0efb0102 	cdpeq	1, 15, cr0, cr11, cr2, {0}
 53c:	0101000d 	tsteq	r1, sp
 540:	00000101 	andeq	r0, r0, r1, lsl #2
 544:	00000100 	andeq	r0, r0, r0, lsl #2
 548:	63727301 	cmnvs	r2, #67108864	; 0x4000000
 54c:	6f640000 	svcvs	0x00640000
 550:	7172695f 	cmnvc	r2, pc, asr r9
 554:	0100632e 	tsteq	r0, lr, lsr #6
 558:	00000000 	andeq	r0, r0, r0
 55c:	98bc0205 	ldmls	ip!, {r0, r2, r9}
 560:	4b15c000 	blmi	570568 <_start-0xbfa97a98>
 564:	01000802 	tsteq	r0, r2, lsl #16
 568:	0000d701 	andeq	sp, r0, r1, lsl #14
 56c:	5a000200 	bpl	d74 <_start-0xc000728c>
 570:	02000000 	andeq	r0, r0, #0
 574:	0d0efb01 	vstreq	d15, [lr, #-4]
 578:	01010100 	mrseq	r0, (UNDEF: 17)
 57c:	00000001 	andeq	r0, r0, r1
 580:	01000001 	tsteq	r0, r1
 584:	00637273 	rsbeq	r7, r3, r3, ror r2
 588:	6f632f2e 	svcvs	0x00632f2e
 58c:	6e6f6d6d 	cdpvs	13, 6, cr6, cr15, cr13, {3}
 590:	636e692f 	cmnvs	lr, #770048	; 0xbc000
 594:	6564756c 	strbvs	r7, [r4, #-1388]!	; 0xfffffa94
 598:	70730000 	rsbsvc	r0, r3, r0
 59c:	00632e69 	rsbeq	r2, r3, r9, ror #28
 5a0:	73000001 	movwvc	r0, #1
 5a4:	32336d74 	eorscc	r6, r3, #116, 26	; 0x1d00
 5a8:	7831706d 	ldmdavc	r1!, {r0, r2, r3, r5, r6, ip, sp, lr}
 5ac:	70675f78 	rsbvc	r5, r7, r8, ror pc
 5b0:	682e6f69 	stmdavs	lr!, {r0, r3, r5, r6, r8, r9, sl, fp, sp, lr}
 5b4:	00000200 	andeq	r0, r0, r0, lsl #4
 5b8:	336d7473 	cmncc	sp, #1929379840	; 0x73000000
 5bc:	31706d32 	cmncc	r0, r2, lsr sp
 5c0:	725f7878 	subsvc	r7, pc, #120, 16	; 0x780000
 5c4:	682e6363 	stmdavs	lr!, {r0, r1, r5, r6, r8, r9, sp, lr}
 5c8:	00000200 	andeq	r0, r0, r0, lsl #4
 5cc:	02050000 	andeq	r0, r5, #0
 5d0:	c00098d4 	ldrdgt	r9, [r0], -r4
 5d4:	84011503 	strhi	r1, [r1], #-1283	; 0xfffffafd
 5d8:	04020067 	streq	r0, [r2], #-103	; 0xffffff99
 5dc:	00660603 	rsbeq	r0, r6, r3, lsl #12
 5e0:	66010402 	strvs	r0, [r1], -r2, lsl #8
 5e4:	02040200 	andeq	r0, r4, #0, 4
 5e8:	02006506 	andeq	r6, r0, #25165824	; 0x1800000
 5ec:	66060104 	strvs	r0, [r6], -r4, lsl #2
 5f0:	4b858506 	blmi	fe161a10 <__bss_end__+0x3e15740c>
 5f4:	d7d7d7a0 	ldrble	sp, [r7, r0, lsr #15]
 5f8:	d7d7d8d7 			; <UNDEFINED> instruction: 0xd7d7d8d7
 5fc:	d7d7d7d8 			; <UNDEFINED> instruction: 0xd7d7d7d8
 600:	d7d7d8d7 			; <UNDEFINED> instruction: 0xd7d7d8d7
 604:	d7d7d7d7 			; <UNDEFINED> instruction: 0xd7d7d7d7
 608:	821103d7 	andshi	r0, r1, #1543503875	; 0x5c000003
 60c:	f48368a1 	vst1.32			; <UNDEFINED> instruction: 0xf48368a1
 610:	02040200 	andeq	r0, r4, #0, 4
 614:	040200d8 	streq	r0, [r2], #-216	; 0xffffff28
 618:	02004c02 	andeq	r4, r0, #512	; 0x200
 61c:	00680204 	rsbeq	r0, r8, r4, lsl #4
 620:	d7020402 	strle	r0, [r2, -r2, lsl #8]
 624:	02040200 	andeq	r0, r4, #0, 4
 628:	0402004c 	streq	r0, [r2], #-76	; 0xffffffb4
 62c:	0200d702 	andeq	sp, r0, #524288	; 0x80000
 630:	71030204 	tstvc	r3, r4, lsl #4
 634:	0402004a 	streq	r0, [r2], #-74	; 0xffffffb6
 638:	06660601 	strbteq	r0, [r6], -r1, lsl #12
 63c:	02661203 	rsbeq	r1, r6, #805306368	; 0x30000000
 640:	01010006 	tsteq	r1, r6
 644:	00000036 	andeq	r0, r0, r6, lsr r0
 648:	001d0002 	andseq	r0, sp, r2
 64c:	01020000 	mrseq	r0, (UNDEF: 2)
 650:	000d0efb 	strdeq	r0, [sp], -fp
 654:	01010101 	tsteq	r1, r1, lsl #2
 658:	01000000 	mrseq	r0, (UNDEF: 0)
 65c:	00010000 	andeq	r0, r1, r0
 660:	6e69616d 	powvsez	f6, f1, #5.0
 664:	0000632e 	andeq	r6, r0, lr, lsr #6
 668:	00000000 	andeq	r0, r0, r0
 66c:	9c880205 	sfmls	f0, 4, [r8], {5}
 670:	4c17c000 	ldcmi	0, cr12, [r7], {-0}
 674:	01040200 	mrseq	r0, R12_usr
 678:	00040231 	andeq	r0, r4, r1, lsr r2
 67c:	地址 0x0000067c 越界。


Disassembly of section .debug_info:

00000000 <.debug_info>:
       0:	0000005e 	andeq	r0, r0, lr, asr r0
       4:	00000002 	andeq	r0, r0, r2
       8:	01040000 	mrseq	r0, (UNDEF: 4)
       c:	00000000 	andeq	r0, r0, r0
      10:	c0008000 	andgt	r8, r0, r0
      14:	c0008218 	andgt	r8, r0, r8, lsl r2
      18:	72617473 	rsbvc	r7, r1, #1929379840	; 0x73000000
      1c:	74732f74 	ldrbtvc	r2, [r3], #-3956	; 0xfffff08c
      20:	2e747261 	cdpcs	2, 7, cr7, cr4, cr1, {3}
      24:	682f0053 	stmdavs	pc!, {r0, r1, r4, r6}	; <UNPREDICTABLE>
      28:	2f656d6f 	svccs	0x00656d6f
      2c:	6c656873 	stclvs	8, cr6, [r5], #-460	; 0xfffffe34
      30:	2f6e6f74 	svccs	0x006e6f74
      34:	6b736544 	blvs	1cd954c <_start-0xbe32eab4>
      38:	2f706f74 	svccs	0x00706f74
      3c:	6a797168 	bvs	1e5c5e4 <_start-0xbe1aba1c>
      40:	37304c2f 	ldrcc	r4, [r0, -pc, lsr #24]!
      44:	6d72615f 	ldfvse	f6, [r2, #-380]!	; 0xfffffe84
      48:	7961642f 	stmdbvc	r1!, {r0, r1, r2, r3, r5, sl, sp, lr}^
      4c:	312d3630 			; <UNDEFINED> instruction: 0x312d3630
      50:	4e470033 	mcrmi	0, 2, r0, cr7, cr3, {1}
      54:	53412055 	movtpl	r2, #4181	; 0x1055
      58:	322e3220 	eorcc	r3, lr, #32, 4
      5c:	00322e38 	eorseq	r2, r2, r8, lsr lr
      60:	00668001 	rsbeq	r8, r6, r1
      64:	00020000 	andeq	r0, r2, r0
      68:	00000014 	andeq	r0, r0, r4, lsl r0
      6c:	00970104 	addseq	r0, r7, r4, lsl #2
      70:	82180000 	andshi	r0, r8, #0
      74:	82c8c000 	sbchi	ip, r8, #0
      78:	6f63c000 	svcvs	0x0063c000
      7c:	6e6f6d6d 	cdpvs	13, 6, cr6, cr15, cr13, {3}
      80:	6372732f 	cmnvs	r2, #-1140850688	; 0xbc000000
      84:	6d755f2f 	ldclvs	15, cr5, [r5, #-188]!	; 0xffffff44
      88:	6973646f 	ldmdbvs	r3!, {r0, r1, r2, r3, r5, r6, sl, sp, lr}^
      8c:	00532e33 	subseq	r2, r3, r3, lsr lr
      90:	6d6f682f 	stclvs	8, cr6, [pc, #-188]!	; ffffffdc <__bss_end__+0x3fff59d8>
      94:	68732f65 	ldmdavs	r3!, {r0, r2, r5, r6, r8, r9, sl, fp, sp}^
      98:	6f746c65 	svcvs	0x00746c65
      9c:	65442f6e 	strbvs	r2, [r4, #-3950]	; 0xfffff092
      a0:	6f746b73 	svcvs	0x00746b73
      a4:	71682f70 	smcvc	33520	; 0x82f0
      a8:	4c2f6a79 			; <UNDEFINED> instruction: 0x4c2f6a79
      ac:	615f3730 	cmpvs	pc, r0, lsr r7	; <UNPREDICTABLE>
      b0:	642f6d72 	strtvs	r6, [pc], #-3442	; b8 <_start-0xc0007f48>
      b4:	36307961 	ldrtcc	r7, [r0], -r1, ror #18
      b8:	0033312d 	eorseq	r3, r3, sp, lsr #2
      bc:	20554e47 	subscs	r4, r5, r7, asr #28
      c0:	32205341 	eorcc	r5, r0, #67108865	; 0x4000001
      c4:	2e38322e 	cdpcs	2, 3, cr3, cr8, cr14, {1}
      c8:	80010032 	andhi	r0, r1, r2, lsr r0
      cc:	00000066 	andeq	r0, r0, r6, rrx
      d0:	00280002 	eoreq	r0, r8, r2
      d4:	01040000 	mrseq	r0, (UNDEF: 4)
      d8:	00000107 	andeq	r0, r0, r7, lsl #2
      dc:	c00082c8 	andgt	r8, r0, r8, asr #5
      e0:	c000835c 	andgt	r8, r0, ip, asr r3
      e4:	6d6d6f63 	stclvs	15, cr6, [sp, #-396]!	; 0xfffffe74
      e8:	732f6e6f 			; <UNDEFINED> instruction: 0x732f6e6f
      ec:	5f2f6372 	svcpl	0x002f6372
      f0:	76696475 			; <UNDEFINED> instruction: 0x76696475
      f4:	2e336973 			; <UNDEFINED> instruction: 0x2e336973
      f8:	682f0053 	stmdavs	pc!, {r0, r1, r4, r6}	; <UNPREDICTABLE>
      fc:	2f656d6f 	svccs	0x00656d6f
     100:	6c656873 	stclvs	8, cr6, [r5], #-460	; 0xfffffe34
     104:	2f6e6f74 	svccs	0x006e6f74
     108:	6b736544 	blvs	1cd9620 <_start-0xbe32e9e0>
     10c:	2f706f74 	svccs	0x00706f74
     110:	6a797168 	bvs	1e5c6b8 <_start-0xbe1ab948>
     114:	37304c2f 	ldrcc	r4, [r0, -pc, lsr #24]!
     118:	6d72615f 	ldfvse	f6, [r2, #-380]!	; 0xfffffe84
     11c:	7961642f 	stmdbvc	r1!, {r0, r1, r2, r3, r5, sl, sp, lr}^
     120:	312d3630 			; <UNDEFINED> instruction: 0x312d3630
     124:	4e470033 	mcrmi	0, 2, r0, cr7, cr3, {1}
     128:	53412055 	movtpl	r2, #4181	; 0x1055
     12c:	322e3220 	eorcc	r3, lr, #32, 4
     130:	00322e38 	eorseq	r2, r2, r8, lsr lr
     134:	047e8001 	ldrbteq	r8, [lr], #-1
     138:	00040000 	andeq	r0, r4, r0
     13c:	0000003c 	andeq	r0, r0, ip, lsr r0
     140:	00570104 	subseq	r0, r7, r4, lsl #2
     144:	160c0000 	strne	r0, [ip], -r0
     148:	8a000001 	bhi	154 <_start-0xc0007eac>
     14c:	5c000001 	stcpl	0, cr0, [r0], {1}
     150:	b8c00083 	stmialt	r0, {r0, r1, r7}^
     154:	70000010 	andvc	r0, r0, r0, lsl r0
     158:	02000001 	andeq	r0, r0, #1
     15c:	0000003e 	andeq	r0, r0, lr, lsr r0
     160:	00302803 	eorseq	r2, r0, r3, lsl #16
     164:	04030000 	streq	r0, [r3], #-0
     168:	00000007 	andeq	r0, r0, r7
     16c:	00004502 	andeq	r4, r0, r2, lsl #10
     170:	25660300 	strbcs	r0, [r6, #-768]!	; 0xfffffd00
     174:	04000000 	streq	r0, [r0], #-0
     178:	00000058 	andeq	r0, r0, r8, asr r0
     17c:	00000051 	andeq	r0, r0, r1, asr r0
     180:	00005105 	andeq	r5, r0, r5, lsl #2
     184:	0600ff00 	streq	pc, [r0], -r0, lsl #30
     188:	00f60704 	rscseq	r0, r6, r4, lsl #14
     18c:	01060000 	mrseq	r0, (UNDEF: 6)
     190:	0000e308 	andeq	lr, r0, r8, lsl #6
     194:	016b0700 	cmneq	fp, r0, lsl #14
     198:	11010000 	mrsne	r0, (UNDEF: 1)
     19c:	00000041 	andeq	r0, r0, r1, asr #32
     1a0:	a4f40305 	ldrbtge	r0, [r4], #773	; 0x305
     1a4:	cc08c000 	stcgt	0, cr12, [r8], {-0}
     1a8:	02000001 	andeq	r0, r0, #1
     1ac:	93c8017d 	bicls	r0, r8, #1073741855	; 0x4000001f
     1b0:	004cc000 	subeq	ip, ip, r0
     1b4:	9c010000 	stcls	0, cr0, [r1], {-0}
     1b8:	000000b6 	strheq	r0, [r0], -r6
     1bc:	746d6609 	strbtvc	r6, [sp], #-1545	; 0xfffff9f7
     1c0:	017d0200 	cmneq	sp, r0, lsl #4
     1c4:	000000b6 	strheq	r0, [r0], -r6
     1c8:	0a709102 	beq	1c245d8 <_start-0xbe3e3a28>
     1cc:	0000230b 	andeq	r2, r0, fp, lsl #6
     1d0:	017f0200 	cmneq	pc, r0, lsl #4
     1d4:	00000036 	andeq	r0, r0, r6, lsr r0
     1d8:	0b649102 	bleq	19245e8 <_start-0xbe6e3a18>
     1dc:	00000172 	andeq	r0, r0, r2, ror r1
     1e0:	c8018002 	stmdagt	r1, {r1, pc}
     1e4:	03000000 	movweq	r0, #0
     1e8:	007f8091 			; <UNDEFINED> instruction: 0x007f8091
     1ec:	00c3040c 	sbceq	r0, r3, ip, lsl #8
     1f0:	01060000 	mrseq	r0, (UNDEF: 6)
     1f4:	0000ec08 	andeq	lr, r0, r8, lsl #24
     1f8:	00bc0d00 	adcseq	r0, ip, r0, lsl #26
     1fc:	bc040000 	stclt	0, cr0, [r4], {-0}
     200:	d8000000 	stmdale	r0, {}	; <UNPREDICTABLE>
     204:	05000000 	streq	r0, [r0, #-0]
     208:	00000051 	andeq	r0, r0, r1, asr r0
     20c:	cb0e0063 	blgt	3803a0 <_start-0xbfc87c60>
     210:	02000001 	andeq	r0, r0, #1
     214:	012e0172 			; <UNDEFINED> instruction: 0x012e0172
     218:	937c0000 	cmnls	ip, #0
     21c:	004cc000 	subeq	ip, ip, r0
     220:	9c010000 	stcls	0, cr0, [r1], {-0}
     224:	0000012e 	andeq	r0, r0, lr, lsr #2
     228:	66756209 	ldrbtvs	r6, [r5], -r9, lsl #4
     22c:	01720200 	cmneq	r2, r0, lsl #4
     230:	00000135 	andeq	r0, r0, r5, lsr r1
     234:	09609102 	stmdbeq	r0!, {r1, r8, ip, pc}^
     238:	00746d66 	rsbseq	r6, r4, r6, ror #26
     23c:	b6017202 	strlt	r7, [r1], -r2, lsl #4
     240:	02000000 	andeq	r0, r0, #0
     244:	0b0a7491 	bleq	29d490 <_start-0xbfd6ab70>
     248:	00000023 	andeq	r0, r0, r3, lsr #32
     24c:	36017402 	strcc	r7, [r1], -r2, lsl #8
     250:	02000000 	andeq	r0, r0, #0
     254:	690f6491 	stmdbvs	pc, {r0, r4, r7, sl, sp, lr}	; <UNPREDICTABLE>
     258:	01750200 	cmneq	r5, r0, lsl #4
     25c:	0000012e 	andeq	r0, r0, lr, lsr #2
     260:	00689102 	rsbeq	r9, r8, r2, lsl #2
     264:	69050410 	stmdbvs	r5, {r4, sl}
     268:	0c00746e 	cfstrseq	mvf7, [r0], {110}	; 0x6e
     26c:	0000bc04 	andeq	fp, r0, r4, lsl #24
     270:	01ca1100 	biceq	r1, sl, r0, lsl #2
     274:	bb020000 	bllt	8027c <_start-0xbff87d84>
     278:	0000012e 	andeq	r0, r0, lr, lsr #2
     27c:	c0008ab4 			; <UNDEFINED> instruction: 0xc0008ab4
     280:	000008c8 	andeq	r0, r0, r8, asr #17
     284:	02479c01 	subeq	r9, r7, #256	; 0x100
     288:	62120000 	andsvs	r0, r2, #0
     28c:	02006675 	andeq	r6, r0, #122683392	; 0x7500000
     290:	000135bb 			; <UNDEFINED> instruction: 0x000135bb
     294:	44910200 	ldrmi	r0, [r1], #512	; 0x200
     298:	746d6612 	strbtvc	r6, [sp], #-1554	; 0xfffff9ee
     29c:	b6bb0200 	ldrtlt	r0, [fp], r0, lsl #4
     2a0:	02000000 	andeq	r0, r0, #0
     2a4:	23134091 	tstcs	r3, #145	; 0x91
     2a8:	02000000 	andeq	r0, r0, #0
     2ac:	000036bb 			; <UNDEFINED> instruction: 0x000036bb
     2b0:	bc910300 	ldclt	3, cr0, [r1], {0}
     2b4:	656c147f 	strbvs	r1, [ip, #-1151]!	; 0xfffffb81
     2b8:	bd02006e 	stclt	0, cr0, [r2, #-440]	; 0xfffffe48
     2bc:	0000012e 	andeq	r0, r0, lr, lsr #2
     2c0:	14509102 	ldrbne	r9, [r0], #-258	; 0xfffffefe
     2c4:	006d756e 	rsbeq	r7, sp, lr, ror #10
     2c8:	0247c102 	subeq	ip, r7, #-2147483648	; 0x80000000
     2cc:	91020000 	mrsls	r0, (UNDEF: 2)
     2d0:	00691474 	rsbeq	r1, r9, r4, ror r4
     2d4:	012ec302 			; <UNDEFINED> instruction: 0x012ec302
     2d8:	91020000 	mrsls	r0, (UNDEF: 2)
     2dc:	00de1570 	sbcseq	r1, lr, r0, ror r5
     2e0:	c3020000 	movwgt	r0, #8192	; 0x2000
     2e4:	0000012e 	andeq	r0, r0, lr, lsr #2
     2e8:	146c9102 	strbtne	r9, [ip], #-258	; 0xfffffefe
     2ec:	00727473 	rsbseq	r7, r2, r3, ror r4
     2f0:	0135c402 	teqeq	r5, r2, lsl #8
     2f4:	91020000 	mrsls	r0, (UNDEF: 2)
     2f8:	00731468 	rsbseq	r1, r3, r8, ror #8
     2fc:	00b6c502 	adcseq	ip, r6, r2, lsl #10
     300:	91020000 	mrsls	r0, (UNDEF: 2)
     304:	012a1564 			; <UNDEFINED> instruction: 0x012a1564
     308:	c7020000 	strgt	r0, [r2, -r0]
     30c:	0000012e 	andeq	r0, r0, lr, lsr #2
     310:	15609102 	strbne	r9, [r0, #-258]!	; 0xfffffefe
     314:	0000017e 	andeq	r0, r0, lr, ror r1
     318:	012ec902 			; <UNDEFINED> instruction: 0x012ec902
     31c:	91020000 	mrsls	r0, (UNDEF: 2)
     320:	004d155c 	subeq	r1, sp, ip, asr r5
     324:	ca020000 	bgt	8032c <_start-0xbff87cd4>
     328:	0000012e 	andeq	r0, r0, lr, lsr #2
     32c:	15589102 	ldrbne	r9, [r8, #-258]	; 0xfffffefe
     330:	00000135 	andeq	r0, r0, r5, lsr r1
     334:	012ecc02 			; <UNDEFINED> instruction: 0x012ecc02
     338:	91020000 	mrsls	r0, (UNDEF: 2)
     33c:	01551654 	cmpeq	r5, r4, asr r6
     340:	d6020000 	strle	r0, [r2], -r0
     344:	c0008b0c 	andgt	r8, r0, ip, lsl #22
     348:	00912417 	addseq	r2, r1, r7, lsl r4
     34c:	000028c0 	andeq	r2, r0, r0, asr #17
     350:	00022e00 	andeq	r2, r2, r0, lsl #28
     354:	70690f00 	rsbvc	r0, r9, r0, lsl #30
     358:	01340200 	teqeq	r4, r0, lsl #4
     35c:	0000024e 	andeq	r0, r0, lr, asr #4
     360:	00489102 	subeq	r9, r8, r2, lsl #2
     364:	00915018 	addseq	r5, r1, r8, lsl r0
     368:	000028c0 	andeq	r2, r0, r0, asr #17
     36c:	70690f00 	rsbvc	r0, r9, r0, lsl #30
     370:	01370200 	teqeq	r7, r0, lsl #4
     374:	0000025b 	andeq	r0, r0, fp, asr r2
     378:	004c9102 	subeq	r9, ip, r2, lsl #2
     37c:	07040600 	streq	r0, [r4, -r0, lsl #12]
     380:	000000f1 	strdeq	r0, [r0], -r1
     384:	0254040c 	subseq	r0, r4, #12, 8	; 0xc000000
     388:	04060000 	streq	r0, [r6], #-0
     38c:	0001b605 	andeq	fp, r1, r5, lsl #12
     390:	2e040c00 	cdpcs	12, 0, cr0, cr4, cr0, {0}
     394:	19000001 	stmdbne	r0, {r0}
     398:	0000015c 	andeq	r0, r0, ip, asr r1
     39c:	0051b302 	subseq	fp, r1, r2, lsl #6
     3a0:	8a480000 	bhi	12003a8 <_start-0xbee07c58>
     3a4:	006cc000 	rsbeq	ip, ip, r0
     3a8:	9c010000 	stcls	0, cr0, [r1], {-0}
     3ac:	000002a2 	andeq	r0, r0, r2, lsr #5
     3b0:	02007312 	andeq	r7, r0, #1207959552	; 0x48000000
     3b4:	0000b6b3 			; <UNDEFINED> instruction: 0x0000b6b3
     3b8:	74910200 	ldrvc	r0, [r1], #512	; 0x200
     3bc:	00002e13 	andeq	r2, r0, r3, lsl lr
     3c0:	51b30200 			; <UNDEFINED> instruction: 0x51b30200
     3c4:	02000000 	andeq	r0, r0, #0
     3c8:	73147091 	tstvc	r4, #145	; 0x91
     3cc:	b5020063 	strlt	r0, [r2, #-99]	; 0xffffff9d
     3d0:	000000b6 	strheq	r0, [r0], -r6
     3d4:	00789102 	rsbseq	r9, r8, r2, lsl #2
     3d8:	0001641a 	andeq	r6, r1, sl, lsl r4
     3dc:	356e0200 	strbcc	r0, [lr, #-512]!	; 0xfffffe00
     3e0:	64000001 	strvs	r0, [r0], #-1
     3e4:	e4c00086 	strb	r0, [r0], #134	; 0x86
     3e8:	01000003 	tsteq	r0, r3
     3ec:	00036f9c 	muleq	r3, ip, pc	; <UNPREDICTABLE>
     3f0:	74731200 	ldrbtvc	r1, [r3], #-512	; 0xfffffe00
     3f4:	6e020072 	mcrvs	0, 0, r0, cr2, cr2, {3}
     3f8:	00000135 	andeq	r0, r0, r5, lsr r1
     3fc:	7f9c9103 	svcvc	0x009c9103
     400:	6d756e12 	ldclvs	14, cr6, [r5, #-72]!	; 0xffffffb8
     404:	546e0200 	strbtpl	r0, [lr], #-512	; 0xfffffe00
     408:	03000002 	movweq	r0, #2
     40c:	137f9891 	cmnne	pc, #9502720	; 0x910000
     410:	000000de 	ldrdeq	r0, [r0], -lr
     414:	00516e02 	subseq	r6, r1, r2, lsl #28
     418:	91030000 	mrsls	r0, (UNDEF: 3)
     41c:	30137f94 	mulscc	r3, r4, pc	; <UNPREDICTABLE>
     420:	02000001 	andeq	r0, r0, #1
     424:	00012e6e 	andeq	r2, r1, lr, ror #28
     428:	90910300 	addsls	r0, r1, r0, lsl #6
     42c:	004d137f 	subeq	r1, sp, pc, ror r3
     430:	6e020000 	cdpvs	0, 0, cr0, cr2, cr0, {0}
     434:	0000012e 	andeq	r0, r0, lr, lsr #2
     438:	13009102 	movwne	r9, #258	; 0x102
     43c:	0000016d 	andeq	r0, r0, sp, ror #2
     440:	012e6e02 			; <UNDEFINED> instruction: 0x012e6e02
     444:	91020000 	mrsls	r0, (UNDEF: 2)
     448:	00631404 	rsbeq	r1, r3, r4, lsl #8
     44c:	00bc7102 	adcseq	r7, ip, r2, lsl #2
     450:	91020000 	mrsls	r0, (UNDEF: 2)
     454:	01bf156b 			; <UNDEFINED> instruction: 0x01bf156b
     458:	71020000 	mrsvc	r0, (UNDEF: 2)
     45c:	000000bc 	strheq	r0, [r0], -ip
     460:	14779102 	ldrbtne	r9, [r7], #-258	; 0xfffffefe
     464:	00706d74 	rsbseq	r6, r0, r4, ror sp
     468:	036f7102 	cmneq	pc, #-2147483648	; 0x80000000
     46c:	91030000 	mrsls	r0, (UNDEF: 3)
     470:	00157fa0 	andseq	r7, r5, r0, lsr #31
     474:	02000000 	andeq	r0, r0, #0
     478:	0000b672 	andeq	fp, r0, r2, ror r6
     47c:	70910200 	addsvc	r0, r1, r0, lsl #4
     480:	02006914 	andeq	r6, r0, #20, 18	; 0x50000
     484:	00012e73 	andeq	r2, r1, r3, ror lr
     488:	6c910200 	lfmvs	f0, 4, [r1], {0}
     48c:	00882018 	addeq	r2, r8, r8, lsl r0
     490:	000034c0 	andeq	r3, r0, r0, asr #9
     494:	01c41500 	biceq	r1, r4, r0, lsl #10
     498:	95020000 	strls	r0, [r2, #-0]
     49c:	0000012e 	andeq	r0, r0, lr, lsr #2
     4a0:	00649102 	rsbeq	r9, r4, r2, lsl #2
     4a4:	00bc0400 	adcseq	r0, ip, r0, lsl #8
     4a8:	037f0000 	cmneq	pc, #0
     4ac:	51050000 	mrspl	r0, (UNDEF: 5)
     4b0:	41000000 	mrsmi	r0, (UNDEF: 0)
     4b4:	00191b00 	andseq	r1, r9, r0, lsl #22
     4b8:	49020000 	stmdbmi	r2, {}	; <UNPREDICTABLE>
     4bc:	0000012e 	andeq	r0, r0, lr, lsr #2
     4c0:	c00085d0 	ldrdgt	r8, [r0], -r0
     4c4:	00000094 	muleq	r0, r4, r0
     4c8:	03b19c01 			; <UNDEFINED> instruction: 0x03b19c01
     4cc:	73120000 	tstvc	r2, #0
     4d0:	b1490200 	mrslt	r0, (UNDEF: 105)
     4d4:	02000003 	andeq	r0, r0, #3
     4d8:	69147491 	ldmdbvs	r4, {r0, r4, r7, sl, ip, sp, lr}
     4dc:	2e4b0200 	cdpcs	2, 4, cr0, cr11, cr0, {0}
     4e0:	02000001 	andeq	r0, r0, #1
     4e4:	0c007891 	stceq	8, cr7, [r0], {145}	; 0x91
     4e8:	0000b604 	andeq	fp, r0, r4, lsl #12
     4ec:	01081100 	mrseq	r1, (UNDEF: 24)
     4f0:	21020000 	mrscs	r0, (UNDEF: 2)
     4f4:	00000254 	andeq	r0, r0, r4, asr r2
     4f8:	c0008564 	andgt	r8, r0, r4, ror #10
     4fc:	0000006c 	andeq	r0, r0, ip, rrx
     500:	03fa9c01 	mvnseq	r9, #256	; 0x100
     504:	63120000 	tstvs	r2, #0
     508:	21020070 	tstcs	r2, r0, ror r0
     50c:	000000b6 	strheq	r0, [r0], -r6
     510:	13749102 	cmnne	r4, #-2147483648	; 0x80000000
     514:	00000103 	andeq	r0, r0, r3, lsl #2
     518:	03fa2102 	mvnseq	r2, #-2147483648	; 0x80000000
     51c:	91020000 	mrsls	r0, (UNDEF: 2)
     520:	00de1370 	sbcseq	r1, lr, r0, ror r3
     524:	21020000 	mrscs	r0, (UNDEF: 2)
     528:	00000051 	andeq	r0, r0, r1, asr r0
     52c:	006c9102 	rsbeq	r9, ip, r2, lsl #2
     530:	0135040c 	teqeq	r5, ip, lsl #8
     534:	3f110000 	svccc	0x00110000
     538:	02000001 	andeq	r0, r0, #1
     53c:	00024706 	andeq	r4, r2, r6, lsl #14
     540:	0083ac00 	addeq	sl, r3, r0, lsl #24
     544:	0001b8c0 	andeq	fp, r1, r0, asr #17
     548:	5f9c0100 	svcpl	0x009c0100
     54c:	12000004 	andne	r0, r0, #4
     550:	02007063 	andeq	r7, r0, #99	; 0x63
     554:	0000b606 	andeq	fp, r0, r6, lsl #12
     558:	6c910200 	lfmvs	f0, 4, [r1], {0}
     55c:	00010313 	andeq	r0, r1, r3, lsl r3
     560:	fa060200 	blx	180d68 <_start-0xbfe87298>
     564:	02000003 	andeq	r0, r0, #3
     568:	de136891 	mrcle	8, 0, r6, cr3, cr1, {4}
     56c:	02000000 	andeq	r0, r0, #0
     570:	00005106 	andeq	r5, r0, r6, lsl #2
     574:	64910200 	ldrvs	r0, [r1], #512	; 0x200
     578:	00014e15 	andeq	r4, r1, r5, lsl lr
     57c:	47080200 	strmi	r0, [r8, -r0, lsl #4]
     580:	02000002 	andeq	r0, r0, #2
     584:	28157491 	ldmdacs	r5, {r0, r4, r7, sl, ip, sp, lr}
     588:	02000000 	andeq	r0, r0, #0
     58c:	00024708 	andeq	r4, r2, r8, lsl #14
     590:	70910200 	addsvc	r0, r1, r0, lsl #4
     594:	00341c00 	eorseq	r1, r4, r0, lsl #24
     598:	44010000 	strmi	r0, [r1], #-0
     59c:	00000058 	andeq	r0, r0, r8, asr r0
     5a0:	c000835c 	andgt	r8, r0, ip, asr r3
     5a4:	00000050 	andeq	r0, r0, r0, asr r0
     5a8:	63129c01 	tstvs	r2, #256	; 0x100
     5ac:	58440100 	stmdapl	r4, {r8}^
     5b0:	02000000 	andeq	r0, r0, #0
     5b4:	00007891 	muleq	r0, r1, r8
     5b8:	00000214 	andeq	r0, r0, r4, lsl r2
     5bc:	01f80004 	mvnseq	r0, r4
     5c0:	01040000 	mrseq	r0, (UNDEF: 4)
     5c4:	00000057 	andeq	r0, r0, r7, asr r0
     5c8:	0002620c 	andeq	r6, r2, ip, lsl #4
     5cc:	00018a00 	andeq	r8, r1, r0, lsl #20
     5d0:	00941400 	addseq	r1, r4, r0, lsl #8
     5d4:	0002dcc0 	andeq	sp, r2, r0, asr #25
     5d8:	0003a200 	andeq	sl, r3, r0, lsl #4
     5dc:	02340200 	eorseq	r0, r4, #0, 4
     5e0:	0000ca04 	andeq	ip, r0, r4, lsl #20
     5e4:	02080300 	andeq	r0, r8, #0, 6
     5e8:	05020000 	streq	r0, [r2, #-0]
     5ec:	000000d1 	ldrdeq	r0, [r0], -r1
     5f0:	02450300 	subeq	r0, r5, #0, 6
     5f4:	06020000 	streq	r0, [r2], -r0
     5f8:	000000d1 	ldrdeq	r0, [r0], -r1
     5fc:	020e0304 	andeq	r0, lr, #4, 6	; 0x10000000
     600:	07020000 	streq	r0, [r2, -r0]
     604:	000000d1 	ldrdeq	r0, [r0], -r1
     608:	02020308 	andeq	r0, r2, #8, 6	; 0x20000000
     60c:	08020000 	stmdaeq	r2, {}	; <UNPREDICTABLE>
     610:	000000d1 	ldrdeq	r0, [r0], -r1
     614:	4449040c 	strbmi	r0, [r9], #-1036	; 0xfffffbf4
     618:	09020052 	stmdbeq	r2, {r1, r4, r6}
     61c:	000000d1 	ldrdeq	r0, [r0], -r1
     620:	444f0410 	strbmi	r0, [pc], #-1040	; 628 <_start-0xc00079d8>
     624:	0a020052 	beq	80774 <_start-0xbff8788c>
     628:	000000d1 	ldrdeq	r0, [r0], -r1
     62c:	01fd0314 	mvnseq	r0, r4, lsl r3
     630:	0b020000 	bleq	80638 <_start-0xbff879c8>
     634:	000000d1 	ldrdeq	r0, [r0], -r1
     638:	02390318 	eorseq	r0, r9, #24, 6	; 0x60000000
     63c:	0c020000 	stceq	0, cr0, [r2], {-0}
     640:	000000d1 	ldrdeq	r0, [r0], -r1
     644:	024c031c 	subeq	r0, ip, #28, 6	; 0x70000000
     648:	0d020000 	stceq	0, cr0, [r2, #-0]
     64c:	000000d1 	ldrdeq	r0, [r0], -r1
     650:	025d0320 	subseq	r0, sp, #32, 6	; 0x80000000
     654:	0e020000 	cdpeq	0, 0, cr0, cr2, cr0, {0}
     658:	000000d1 	ldrdeq	r0, [r0], -r1
     65c:	52420424 	subpl	r0, r2, #36, 8	; 0x24000000
     660:	0f020052 	svceq	0x00020052
     664:	000000d1 	ldrdeq	r0, [r0], -r1
     668:	65720428 	ldrbvs	r0, [r2, #-1064]!	; 0xfffffbd8
     66c:	10020073 	andne	r0, r2, r3, ror r0
     670:	000000d1 	ldrdeq	r0, [r0], -r1
     674:	01df032c 	bicseq	r0, pc, ip, lsr #6
     678:	11020000 	mrsne	r0, (UNDEF: 2)
     67c:	000000d1 	ldrdeq	r0, [r0], -r1
     680:	04050030 	streq	r0, [r5], #-48	; 0xffffffd0
     684:	0000f607 	andeq	pc, r0, r7, lsl #12
     688:	00ca0600 	sbceq	r0, sl, r0, lsl #12
     68c:	32070000 	andcc	r0, r7, #0
     690:	02000002 	andeq	r0, r0, #2
     694:	00002513 	andeq	r2, r0, r3, lsl r5
     698:	03300200 	teqeq	r0, #0, 4
     69c:	00017a04 	andeq	r7, r1, r4, lsl #20
     6a0:	52430400 	subpl	r0, r3, #0, 8
     6a4:	05030031 	streq	r0, [r3, #-49]	; 0xffffffcf
     6a8:	000000d1 	ldrdeq	r0, [r0], -r1
     6ac:	52430400 	subpl	r0, r3, #0, 8
     6b0:	06030032 			; <UNDEFINED> instruction: 0x06030032
     6b4:	000000d1 	ldrdeq	r0, [r0], -r1
     6b8:	52430404 	subpl	r0, r3, #4, 8	; 0x4000000
     6bc:	07030033 	smladxeq	r3, r3, r0, r0
     6c0:	000000d1 	ldrdeq	r0, [r0], -r1
     6c4:	52420408 	subpl	r0, r2, #8, 8	; 0x8000000
     6c8:	08030052 	stmdaeq	r3, {r1, r4, r6}
     6cc:	000000d1 	ldrdeq	r0, [r0], -r1
     6d0:	0216030c 	andseq	r0, r6, #12, 6	; 0x30000000
     6d4:	09030000 	stmdbeq	r3, {}	; <UNPREDICTABLE>
     6d8:	000000d1 	ldrdeq	r0, [r0], -r1
     6dc:	01f80310 	mvnseq	r0, r0, lsl r3
     6e0:	0a030000 	beq	c06e8 <_start-0xbff47918>
     6e4:	000000d1 	ldrdeq	r0, [r0], -r1
     6e8:	51520414 	cmppl	r2, r4, lsl r4
     6ec:	0b030052 	bleq	c083c <_start-0xbff477c4>
     6f0:	000000d1 	ldrdeq	r0, [r0], -r1
     6f4:	53490418 	movtpl	r0, #37912	; 0x9418
     6f8:	0c030052 	stceq	0, cr0, [r3], {82}	; 0x52
     6fc:	000000d1 	ldrdeq	r0, [r0], -r1
     700:	4349041c 	movtmi	r0, #37916	; 0x941c
     704:	0d030052 	stceq	0, cr0, [r3, #-328]	; 0xfffffeb8
     708:	000000d1 	ldrdeq	r0, [r0], -r1
     70c:	44520420 	ldrbmi	r0, [r2], #-1056	; 0xfffffbe0
     710:	0e030052 	mcreq	0, 0, r0, cr3, cr2, {2}
     714:	000000d1 	ldrdeq	r0, [r0], -r1
     718:	44540424 	ldrbmi	r0, [r4], #-1060	; 0xfffffbdc
     71c:	0f030052 	svceq	0x00030052
     720:	000000d1 	ldrdeq	r0, [r0], -r1
     724:	021b0328 	andseq	r0, fp, #40, 6	; 0xa0000000
     728:	10030000 	andne	r0, r3, r0
     72c:	000000d1 	ldrdeq	r0, [r0], -r1
     730:	3e07002c 	cdpcc	0, 0, cr0, cr7, cr12, {1}
     734:	03000002 	movweq	r0, #2
     738:	0000e111 	andeq	lr, r0, r1, lsl r1
     73c:	02510800 	subseq	r0, r1, #0, 16
     740:	30010000 	andcc	r0, r1, r0
     744:	000001ac 	andeq	r0, r0, ip, lsr #3
     748:	c00096a4 	andgt	r9, r0, r4, lsr #13
     74c:	0000004c 	andeq	r0, r0, ip, asr #32
     750:	01ac9c01 			; <UNDEFINED> instruction: 0x01ac9c01
     754:	63090000 	movwvs	r0, #36864	; 0x9000
     758:	32010068 	andcc	r0, r1, #104	; 0x68
     75c:	000001ac 	andeq	r0, r0, ip, lsr #3
     760:	007b9102 	rsbseq	r9, fp, r2, lsl #2
     764:	ec080105 	stfs	f0, [r8], {5}
     768:	0a000000 	beq	770 <_start-0xc0007890>
     76c:	000001ac 	andeq	r0, r0, ip, lsr #3
     770:	0001e70b 	andeq	lr, r1, fp, lsl #14
     774:	5c2a0100 	stfpls	f0, [sl], #-0
     778:	48c00096 	stmiami	r0, {r1, r2, r4, r7}^
     77c:	01000000 	mrseq	r0, (UNDEF: 0)
     780:	0001dc9c 	muleq	r1, ip, ip
     784:	02210c00 	eoreq	r0, r1, #0, 24
     788:	2a010000 	bcs	40790 <_start-0xbffc7870>
     78c:	000001dc 	ldrdeq	r0, [r0], -ip
     790:	00749102 	rsbseq	r9, r4, r2, lsl #2
     794:	01b3040d 			; <UNDEFINED> instruction: 0x01b3040d
     798:	d30b0000 	movwle	r0, #45056	; 0xb000
     79c:	01000001 	tsteq	r0, r1
     7a0:	0095fc23 	addseq	pc, r5, r3, lsr #24
     7a4:	000060c0 	andeq	r6, r0, r0, asr #1
     7a8:	069c0100 	ldreq	r0, [ip], r0, lsl #2
     7ac:	0c000002 	stceq	0, cr0, [r0], {2}
     7b0:	000001f3 	strdeq	r0, [r0], -r3
     7b4:	01b32301 			; <UNDEFINED> instruction: 0x01b32301
     7b8:	91020000 	mrsls	r0, (UNDEF: 2)
     7bc:	260e0074 			; <UNDEFINED> instruction: 0x260e0074
     7c0:	01000002 	tsteq	r0, r2
     7c4:	00941405 	addseq	r1, r4, r5, lsl #8
     7c8:	0001e8c0 	andeq	lr, r1, r0, asr #17
     7cc:	009c0100 	addseq	r0, ip, r0, lsl #2
     7d0:	0000018c 	andeq	r0, r0, ip, lsl #3
     7d4:	02d00004 	sbcseq	r0, r0, #4
     7d8:	01040000 	mrseq	r0, (UNDEF: 4)
     7dc:	00000057 	andeq	r0, r0, r7, asr r0
     7e0:	0002820c 	andeq	r8, r2, ip, lsl #4
     7e4:	00018a00 	andeq	r8, r1, r0, lsl #20
     7e8:	0096f000 	addseq	pc, r6, r0
     7ec:	0001ccc0 	andeq	ip, r1, r0, asr #25
     7f0:	00044c00 	andeq	r4, r4, r0, lsl #24
     7f4:	02340200 	eorseq	r0, r4, #0, 4
     7f8:	0000ca04 	andeq	ip, r0, r4, lsl #20
     7fc:	02080300 	andeq	r0, r8, #0, 6
     800:	05020000 	streq	r0, [r2, #-0]
     804:	000000d1 	ldrdeq	r0, [r0], -r1
     808:	02450300 	subeq	r0, r5, #0, 6
     80c:	06020000 	streq	r0, [r2], -r0
     810:	000000d1 	ldrdeq	r0, [r0], -r1
     814:	020e0304 	andeq	r0, lr, #4, 6	; 0x10000000
     818:	07020000 	streq	r0, [r2, -r0]
     81c:	000000d1 	ldrdeq	r0, [r0], -r1
     820:	02020308 	andeq	r0, r2, #8, 6	; 0x20000000
     824:	08020000 	stmdaeq	r2, {}	; <UNPREDICTABLE>
     828:	000000d1 	ldrdeq	r0, [r0], -r1
     82c:	4449040c 	strbmi	r0, [r9], #-1036	; 0xfffffbf4
     830:	09020052 	stmdbeq	r2, {r1, r4, r6}
     834:	000000d1 	ldrdeq	r0, [r0], -r1
     838:	444f0410 	strbmi	r0, [pc], #-1040	; 840 <_start-0xc00077c0>
     83c:	0a020052 	beq	8098c <_start-0xbff87674>
     840:	000000d1 	ldrdeq	r0, [r0], -r1
     844:	01fd0314 	mvnseq	r0, r4, lsl r3
     848:	0b020000 	bleq	80850 <_start-0xbff877b0>
     84c:	000000d1 	ldrdeq	r0, [r0], -r1
     850:	02390318 	eorseq	r0, r9, #24, 6	; 0x60000000
     854:	0c020000 	stceq	0, cr0, [r2], {-0}
     858:	000000d1 	ldrdeq	r0, [r0], -r1
     85c:	024c031c 	subeq	r0, ip, #28, 6	; 0x70000000
     860:	0d020000 	stceq	0, cr0, [r2, #-0]
     864:	000000d1 	ldrdeq	r0, [r0], -r1
     868:	025d0320 	subseq	r0, sp, #32, 6	; 0x80000000
     86c:	0e020000 	cdpeq	0, 0, cr0, cr2, cr0, {0}
     870:	000000d1 	ldrdeq	r0, [r0], -r1
     874:	52420424 	subpl	r0, r2, #36, 8	; 0x24000000
     878:	0f020052 	svceq	0x00020052
     87c:	000000d1 	ldrdeq	r0, [r0], -r1
     880:	65720428 	ldrbvs	r0, [r2, #-1064]!	; 0xfffffbd8
     884:	10020073 	andne	r0, r2, r3, ror r0
     888:	000000d1 	ldrdeq	r0, [r0], -r1
     88c:	01df032c 	bicseq	r0, pc, ip, lsr #6
     890:	11020000 	mrsne	r0, (UNDEF: 2)
     894:	000000d1 	ldrdeq	r0, [r0], -r1
     898:	04050030 	streq	r0, [r5], #-48	; 0xffffffd0
     89c:	0000f607 	andeq	pc, r0, r7, lsl #12
     8a0:	00ca0600 	sbceq	r0, sl, r0, lsl #12
     8a4:	32070000 	andcc	r0, r7, #0
     8a8:	02000002 	andeq	r0, r0, #2
     8ac:	00002513 	andeq	r2, r0, r3, lsl r5
     8b0:	00f10800 	rscseq	r0, r1, r0, lsl #16
     8b4:	00f10000 	rscseq	r0, r1, r0
     8b8:	ca090000 	bgt	2408c0 <_start-0xbfdc7740>
     8bc:	09000000 	stmdbeq	r0, {}	; <UNPREDICTABLE>
     8c0:	08010500 	stmdaeq	r1, {r8, sl}
     8c4:	000000e3 	andeq	r0, r0, r3, ror #1
     8c8:	0002740a 	andeq	r7, r2, sl, lsl #8
     8cc:	e1020100 	mrs	r0, (UNDEF: 18)
     8d0:	05000000 	streq	r0, [r0, #-0]
     8d4:	00a5f403 	adceq	pc, r5, r3, lsl #8
     8d8:	029a0bc0 	addseq	r0, sl, #192, 22	; 0x30000
     8dc:	25010000 	strcs	r0, [r1, #-0]
     8e0:	c0009804 	andgt	r9, r0, r4, lsl #16
     8e4:	000000b8 	strheq	r0, [r0], -r8
     8e8:	012b9c01 			; <UNDEFINED> instruction: 0x012b9c01
     8ec:	690c0000 	stmdbvs	ip, {}	; <UNPREDICTABLE>
     8f0:	f1270100 			; <UNDEFINED> instruction: 0xf1270100
     8f4:	02000000 	andeq	r0, r0, #0
     8f8:	0b007791 	bleq	1e744 <_start-0xbffe98bc>
     8fc:	00000294 	muleq	r0, r4, r2
     900:	97601201 	strbls	r1, [r0, -r1, lsl #4]!
     904:	00a4c000 	adceq	ip, r4, r0
     908:	9c010000 	stcls	0, cr0, [r1], {-0}
     90c:	0000014d 	andeq	r0, r0, sp, asr #2
     910:	0100690c 	tsteq	r0, ip, lsl #18
     914:	0000f114 	andeq	pc, r0, r4, lsl r1	; <UNPREDICTABLE>
     918:	77910200 	ldrvc	r0, [r1, r0, lsl #4]
     91c:	02790d00 	rsbseq	r0, r9, #0, 26
     920:	04010000 	streq	r0, [r1], #-0
     924:	c00096f0 	strdgt	r9, [r0], -r0
     928:	00000070 	andeq	r0, r0, r0, ror r0
     92c:	01889c01 	orreq	r9, r8, r1, lsl #24
     930:	6d0e0000 	stcvs	0, cr0, [lr, #-0]
     934:	04010073 	streq	r0, [r1], #-115	; 0xffffff8d
     938:	00000188 	andeq	r0, r0, r8, lsl #3
     93c:	0c709102 	ldfeqp	f1, [r0], #-8
     940:	06010069 	streq	r0, [r1], -r9, rrx
     944:	00000188 	andeq	r0, r0, r8, lsl #3
     948:	0c789102 	ldfeqp	f1, [r8], #-8
     94c:	0601006a 	streq	r0, [r1], -sl, rrx
     950:	00000188 	andeq	r0, r0, r8, lsl #3
     954:	00749102 	rsbseq	r9, r4, r2, lsl #2
     958:	6905040f 	stmdbvs	r5, {r0, r1, r2, r3, sl}
     95c:	0000746e 	andeq	r7, r0, lr, ror #8
     960:	00000049 	andeq	r0, r0, r9, asr #32
     964:	03ac0004 			; <UNDEFINED> instruction: 0x03ac0004
     968:	01040000 	mrseq	r0, (UNDEF: 4)
     96c:	00000057 	andeq	r0, r0, r7, asr r0
     970:	0002a70c 	andeq	sl, r2, ip, lsl #14
     974:	00018a00 	andeq	r8, r1, r0, lsl #20
     978:	0098bc00 	addseq	fp, r8, r0, lsl #24
     97c:	000018c0 	andeq	r1, r0, r0, asr #17
     980:	00052e00 	andeq	r2, r5, r0, lsl #28
     984:	00690200 	rsbeq	r0, r9, r0, lsl #4
     988:	00340201 	eorseq	r0, r4, r1, lsl #4
     98c:	03050000 	movweq	r0, #20480	; 0x5000
     990:	c000a600 	andgt	sl, r0, r0, lsl #12
     994:	f6070403 			; <UNDEFINED> instruction: 0xf6070403
     998:	04000000 	streq	r0, [r0], #-0
     99c:	000002a0 	andeq	r0, r0, r0, lsr #5
     9a0:	98bc0301 	ldmls	ip!, {r0, r8, r9}
     9a4:	0018c000 	andseq	ip, r8, r0
     9a8:	9c010000 	stcls	0, cr0, [r1], {-0}
     9ac:	000f6100 	andeq	r6, pc, r0, lsl #2
     9b0:	f4000400 	vst3.8	{d0-d2}, [r0], r0
     9b4:	04000003 	streq	r0, [r0], #-3
     9b8:	00005701 	andeq	r5, r0, r1, lsl #14
     9bc:	03500c00 	cmpeq	r0, #0, 24
     9c0:	018a0000 	orreq	r0, sl, r0
     9c4:	98d40000 	ldmls	r4, {}^	; <UNPREDICTABLE>
     9c8:	03b4c000 			; <UNDEFINED> instruction: 0x03b4c000
     9cc:	05690000 	strbeq	r0, [r9, #-0]!
     9d0:	34020000 	strcc	r0, [r2], #-0
     9d4:	00ca0402 	sbceq	r0, sl, r2, lsl #8
     9d8:	08030000 	stmdaeq	r3, {}	; <UNPREDICTABLE>
     9dc:	02000002 	andeq	r0, r0, #2
     9e0:	0000d105 	andeq	sp, r0, r5, lsl #2
     9e4:	45030000 	strmi	r0, [r3, #-0]
     9e8:	02000002 	andeq	r0, r0, #2
     9ec:	0000d106 	andeq	sp, r0, r6, lsl #2
     9f0:	0e030400 	cfcpyseq	mvf0, mvf3
     9f4:	02000002 	andeq	r0, r0, #2
     9f8:	0000d107 	andeq	sp, r0, r7, lsl #2
     9fc:	02030800 	andeq	r0, r3, #0, 16
     a00:	02000002 	andeq	r0, r0, #2
     a04:	0000d108 	andeq	sp, r0, r8, lsl #2
     a08:	49040c00 	stmdbmi	r4, {sl, fp}
     a0c:	02005244 	andeq	r5, r0, #68, 4	; 0x40000004
     a10:	0000d109 	andeq	sp, r0, r9, lsl #2
     a14:	4f041000 	svcmi	0x00041000
     a18:	02005244 	andeq	r5, r0, #68, 4	; 0x40000004
     a1c:	0000d10a 	andeq	sp, r0, sl, lsl #2
     a20:	fd031400 	stc2	4, cr1, [r3, #-0]
     a24:	02000001 	andeq	r0, r0, #1
     a28:	0000d10b 	andeq	sp, r0, fp, lsl #2
     a2c:	39031800 	stmdbcc	r3, {fp, ip}
     a30:	02000002 	andeq	r0, r0, #2
     a34:	0000d10c 	andeq	sp, r0, ip, lsl #2
     a38:	4c031c00 	stcmi	12, cr1, [r3], {-0}
     a3c:	02000002 	andeq	r0, r0, #2
     a40:	0000d10d 	andeq	sp, r0, sp, lsl #2
     a44:	5d032000 	stcpl	0, cr2, [r3, #-0]
     a48:	02000002 	andeq	r0, r0, #2
     a4c:	0000d10e 	andeq	sp, r0, lr, lsl #2
     a50:	42042400 	andmi	r2, r4, #0, 8
     a54:	02005252 	andeq	r5, r0, #536870917	; 0x20000005
     a58:	0000d10f 	andeq	sp, r0, pc, lsl #2
     a5c:	72042800 	andvc	r2, r4, #0, 16
     a60:	02007365 	andeq	r7, r0, #-1811939327	; 0x94000001
     a64:	0000d110 	andeq	sp, r0, r0, lsl r1
     a68:	df032c00 	svcle	0x00032c00
     a6c:	02000001 	andeq	r0, r0, #1
     a70:	0000d111 	andeq	sp, r0, r1, lsl r1
     a74:	05003000 	streq	r3, [r0, #-0]
     a78:	00f60704 	rscseq	r0, r6, r4, lsl #14
     a7c:	ca060000 	bgt	180a84 <_start-0xbfe8757c>
     a80:	07000000 	streq	r0, [r0, -r0]
     a84:	00000232 	andeq	r0, r0, r2, lsr r2
     a88:	00251302 	eoreq	r1, r5, r2, lsl #6
     a8c:	00080000 	andeq	r0, r8, r0
     a90:	93040310 	movwls	r0, #17168	; 0x4310
     a94:	0300000d 	movweq	r0, #13
     a98:	00000db2 			; <UNDEFINED> instruction: 0x00000db2
     a9c:	00d10503 	sbcseq	r0, r1, r3, lsl #10
     aa0:	03000000 	movweq	r0, #0
     aa4:	000004ba 			; <UNDEFINED> instruction: 0x000004ba
     aa8:	0da30603 	stceq	6, cr0, [r3, #12]!
     aac:	03040000 	movweq	r0, #16384	; 0x4000
     ab0:	00000576 	andeq	r0, r0, r6, ror r5
     ab4:	00d10703 	sbcseq	r0, r1, r3, lsl #14
     ab8:	030c0000 	movweq	r0, #49152	; 0xc000
     abc:	0000085d 	andeq	r0, r0, sp, asr r8
     ac0:	00d10803 	sbcseq	r0, r1, r3, lsl #16
     ac4:	03100000 	tsteq	r0, #0
     ac8:	000004bf 			; <UNDEFINED> instruction: 0x000004bf
     acc:	0db80903 			; <UNDEFINED> instruction: 0x0db80903
     ad0:	03140000 	tsteq	r4, #0
     ad4:	000006fc 	strdeq	r0, [r0], -ip
     ad8:	00d10a03 	sbcseq	r0, r1, r3, lsl #20
     adc:	03180000 	tsteq	r8, #0
     ae0:	00000c72 	andeq	r0, r0, r2, ror ip
     ae4:	00d10b03 	sbcseq	r0, r1, r3, lsl #22
     ae8:	031c0000 	tsteq	ip, #0
     aec:	000006d4 	ldrdeq	r0, [r0], -r4
     af0:	00d10c03 	sbcseq	r0, r1, r3, lsl #24
     af4:	03200000 	nopeq	{0}	; <UNPREDICTABLE>
     af8:	00000d73 	andeq	r0, r0, r3, ror sp
     afc:	00d10d03 	sbcseq	r0, r1, r3, lsl #26
     b00:	03240000 			; <UNDEFINED> instruction: 0x03240000
     b04:	00000956 	andeq	r0, r0, r6, asr r9
     b08:	00d10e03 	sbcseq	r0, r1, r3, lsl #28
     b0c:	03280000 			; <UNDEFINED> instruction: 0x03280000
     b10:	000009eb 	andeq	r0, r0, fp, ror #19
     b14:	00d10f03 	sbcseq	r0, r1, r3, lsl #30
     b18:	032c0000 			; <UNDEFINED> instruction: 0x032c0000
     b1c:	0000030e 	andeq	r0, r0, lr, lsl #6
     b20:	00d11003 	sbcseq	r1, r1, r3
     b24:	03300000 	teqeq	r0, #0
     b28:	000004c4 	andeq	r0, r0, r4, asr #9
     b2c:	0da31103 	stfeqs	f1, [r3, #12]!
     b30:	03340000 	teqeq	r4, #0
     b34:	0000035a 	andeq	r0, r0, sl, asr r3
     b38:	00d11203 	sbcseq	r1, r1, r3, lsl #4
     b3c:	033c0000 	teqeq	ip, #0
     b40:	00000ad7 	ldrdeq	r0, [r0], -r7
     b44:	00d11303 	sbcseq	r1, r1, r3, lsl #6
     b48:	03400000 	movteq	r0, #0
     b4c:	00000895 	muleq	r0, r5, r8
     b50:	00d11403 	sbcseq	r1, r1, r3, lsl #8
     b54:	03440000 	movteq	r0, #16384	; 0x4000
     b58:	00000b53 	andeq	r0, r0, r3, asr fp
     b5c:	00d11503 	sbcseq	r1, r1, r3, lsl #10
     b60:	03480000 	movteq	r0, #32768	; 0x8000
     b64:	000004c9 	andeq	r0, r0, r9, asr #9
     b68:	0dcd1603 	stcleq	6, cr1, [sp, #12]
     b6c:	034c0000 	movteq	r0, #49152	; 0xc000
     b70:	00000d8d 	andeq	r0, r0, sp, lsl #27
     b74:	00d11703 	sbcseq	r1, r1, r3, lsl #14
     b78:	03800000 	orreq	r0, r0, #0
     b7c:	000007cf 	andeq	r0, r0, pc, asr #15
     b80:	00d11803 	sbcseq	r1, r1, r3, lsl #16
     b84:	03840000 	orreq	r0, r4, #0
     b88:	000007d9 	ldrdeq	r0, [r0], -r9
     b8c:	00d11903 	sbcseq	r1, r1, r3, lsl #18
     b90:	03880000 	orreq	r0, r8, #0
     b94:	000004b0 			; <UNDEFINED> instruction: 0x000004b0
     b98:	00d11a03 	sbcseq	r1, r1, r3, lsl #20
     b9c:	038c0000 	orreq	r0, ip, #0
     ba0:	0000065e 	andeq	r0, r0, lr, asr r6
     ba4:	00d11b03 	sbcseq	r1, r1, r3, lsl #22
     ba8:	03900000 	orrseq	r0, r0, #0
     bac:	00000b4c 	andeq	r0, r0, ip, asr #22
     bb0:	00d11c03 	sbcseq	r1, r1, r3, lsl #24
     bb4:	03940000 	orrseq	r0, r4, #0
     bb8:	0000040e 	andeq	r0, r0, lr, lsl #8
     bbc:	00d11d03 	sbcseq	r1, r1, r3, lsl #26
     bc0:	03980000 	orrseq	r0, r8, #0
     bc4:	00000960 	andeq	r0, r0, r0, ror #18
     bc8:	00d11e03 	sbcseq	r1, r1, r3, lsl #28
     bcc:	039c0000 	orrseq	r0, ip, #0
     bd0:	00000612 	andeq	r0, r0, r2, lsl r6
     bd4:	00d11f03 	sbcseq	r1, r1, r3, lsl #30
     bd8:	03a00000 	moveq	r0, #0
     bdc:	00000e12 	andeq	r0, r0, r2, lsl lr
     be0:	00d12003 	sbcseq	r2, r1, r3
     be4:	03a40000 			; <UNDEFINED> instruction: 0x03a40000
     be8:	000004ce 	andeq	r0, r0, lr, asr #9
     bec:	0de22103 	stfeqe	f2, [r2, #12]!
     bf0:	03a80000 			; <UNDEFINED> instruction: 0x03a80000
     bf4:	00000d4f 	andeq	r0, r0, pc, asr #26
     bf8:	00d12203 	sbcseq	r2, r1, r3, lsl #4
     bfc:	03c00000 	biceq	r0, r0, #0
     c00:	00000432 	andeq	r0, r0, r2, lsr r4
     c04:	00d12303 	sbcseq	r2, r1, r3, lsl #6
     c08:	03c40000 	biceq	r0, r4, #0
     c0c:	000003e4 	andeq	r0, r0, r4, ror #7
     c10:	00d12403 	sbcseq	r2, r1, r3, lsl #8
     c14:	03c80000 	biceq	r0, r8, #0
     c18:	00000d39 	andeq	r0, r0, r9, lsr sp
     c1c:	00d12503 	sbcseq	r2, r1, r3, lsl #10
     c20:	03cc0000 	biceq	r0, ip, #0
     c24:	000009fd 	strdeq	r0, [r0], -sp
     c28:	00d12603 	sbcseq	r2, r1, r3, lsl #12
     c2c:	03d00000 	bicseq	r0, r0, #0
     c30:	0000089d 	muleq	r0, sp, r8
     c34:	00d12703 	sbcseq	r2, r1, r3, lsl #14
     c38:	03d40000 	bicseq	r0, r4, #0
     c3c:	000009f4 	strdeq	r0, [r0], -r4
     c40:	00d12803 	sbcseq	r2, r1, r3, lsl #16
     c44:	03d80000 	bicseq	r0, r8, #0
     c48:	000004d3 	ldrdeq	r0, [r0], -r3
     c4c:	0df72903 			; <UNDEFINED> instruction: 0x0df72903
     c50:	09dc0000 	ldmibeq	ip, {}^	; <UNPREDICTABLE>
     c54:	00000346 	andeq	r0, r0, r6, asr #6
     c58:	00d12a03 	sbcseq	r2, r1, r3, lsl #20
     c5c:	01000000 	mrseq	r0, (UNDEF: 0)
     c60:	0009a109 	andeq	sl, r9, r9, lsl #2
     c64:	d12b0300 			; <UNDEFINED> instruction: 0xd12b0300
     c68:	04000000 	streq	r0, [r0], #-0
     c6c:	0c7a0901 			; <UNDEFINED> instruction: 0x0c7a0901
     c70:	2c030000 	stccs	0, cr0, [r3], {-0}
     c74:	000000d1 	ldrdeq	r0, [r0], -r1
     c78:	c3090108 	movwgt	r0, #37128	; 0x9108
     c7c:	0300000a 	movweq	r0, #10
     c80:	0000d12d 	andeq	sp, r0, sp, lsr #2
     c84:	09010c00 	stmdbeq	r1, {sl, fp}
     c88:	00000a4e 	andeq	r0, r0, lr, asr #20
     c8c:	00d12e03 	sbcseq	r2, r1, r3, lsl #28
     c90:	01100000 	tsteq	r0, r0
     c94:	000bb509 	andeq	fp, fp, r9, lsl #10
     c98:	d12f0300 			; <UNDEFINED> instruction: 0xd12f0300
     c9c:	14000000 	strne	r0, [r0], #-0
     ca0:	04d80901 	ldrbeq	r0, [r8], #2305	; 0x901
     ca4:	30030000 	andcc	r0, r3, r0
     ca8:	00000e0c 	andeq	r0, r0, ip, lsl #28
     cac:	28090118 	stmdacs	r9, {r3, r4, r8}
     cb0:	0300000d 	movweq	r0, #13
     cb4:	0000d131 	andeq	sp, r0, r1, lsr r1
     cb8:	09014000 	stmdbeq	r1, {lr}
     cbc:	00000947 	andeq	r0, r0, r7, asr #18
     cc0:	00d13203 	sbcseq	r3, r1, r3, lsl #4
     cc4:	01440000 	mrseq	r0, (UNDEF: 68)
     cc8:	0004dd09 	andeq	sp, r4, r9, lsl #26
     ccc:	21330300 	teqcs	r3, r0, lsl #6
     cd0:	4800000e 	stmdami	r0, {r1, r2, r3}
     cd4:	0dee0901 			; <UNDEFINED> instruction: 0x0dee0901
     cd8:	34030000 	strcc	r0, [r3], #-0
     cdc:	000000d1 	ldrdeq	r0, [r0], -r1
     ce0:	a4090180 	strge	r0, [r9], #-384	; 0xfffffe80
     ce4:	03000004 	movweq	r0, #4
     ce8:	0000d135 	andeq	sp, r0, r5, lsr r1
     cec:	09018400 	stmdbeq	r1, {sl, pc}
     cf0:	00000a59 	andeq	r0, r0, r9, asr sl
     cf4:	00d13603 	sbcseq	r3, r1, r3, lsl #12
     cf8:	01880000 	orreq	r0, r8, r0
     cfc:	000d2d09 	andeq	r2, sp, r9, lsl #26
     d00:	d1370300 	teqle	r7, r0, lsl #6
     d04:	8c000000 	stchi	0, cr0, [r0], {-0}
     d08:	071e0901 	ldreq	r0, [lr, -r1, lsl #18]
     d0c:	38030000 	stmdacc	r3, {}	; <UNPREDICTABLE>
     d10:	000000d1 	ldrdeq	r0, [r0], -r1
     d14:	26090190 			; <UNDEFINED> instruction: 0x26090190
     d18:	03000004 	movweq	r0, #4
     d1c:	0000d139 	andeq	sp, r0, r9, lsr r1
     d20:	09019400 	stmdbeq	r1, {sl, ip, pc}
     d24:	00000a42 	andeq	r0, r0, r2, asr #20
     d28:	00d13a03 	sbcseq	r3, r1, r3, lsl #20
     d2c:	01980000 	orrseq	r0, r8, r0
     d30:	0007f309 	andeq	pc, r7, r9, lsl #6
     d34:	d13b0300 	teqle	fp, r0, lsl #6
     d38:	9c000000 	stcls	0, cr0, [r0], {-0}
     d3c:	045c0901 	ldrbeq	r0, [ip], #-2305	; 0xfffff6ff
     d40:	3c030000 	stccc	0, cr0, [r3], {-0}
     d44:	000000d1 	ldrdeq	r0, [r0], -r1
     d48:	f10901a0 			; <UNDEFINED> instruction: 0xf10901a0
     d4c:	03000007 	movweq	r0, #7
     d50:	0000d13d 	andeq	sp, r0, sp, lsr r1
     d54:	0901a400 	stmdbeq	r1, {sl, sp, pc}
     d58:	000004e2 	andeq	r0, r0, r2, ror #9
     d5c:	0e363e03 	cdpeq	14, 3, cr3, cr6, cr3, {0}
     d60:	01a80000 			; <UNDEFINED> instruction: 0x01a80000
     d64:	0005ee09 	andeq	lr, r5, r9, lsl #28
     d68:	d13f0300 	teqle	pc, r0, lsl #6
     d6c:	00000000 	andeq	r0, r0, r0
     d70:	08c60902 	stmiaeq	r6, {r1, r8, fp}^
     d74:	40030000 	andmi	r0, r3, r0
     d78:	000000d1 	ldrdeq	r0, [r0], -r1
     d7c:	31090204 	tstcc	r9, r4, lsl #4
     d80:	0300000c 	movweq	r0, #12
     d84:	0000d141 	andeq	sp, r0, r1, asr #2
     d88:	09020800 	stmdbeq	r2, {fp}
     d8c:	0000038e 	andeq	r0, r0, lr, lsl #7
     d90:	00d14203 	sbcseq	r4, r1, r3, lsl #4
     d94:	020c0000 	andeq	r0, ip, #0
     d98:	0002e209 	andeq	lr, r2, r9, lsl #4
     d9c:	d1430300 	mrsle	r0, (UNDEF: 115)
     da0:	10000000 	andne	r0, r0, r0
     da4:	0c9c0902 			; <UNDEFINED> instruction: 0x0c9c0902
     da8:	44030000 	strmi	r0, [r3], #-0
     dac:	000000d1 	ldrdeq	r0, [r0], -r1
     db0:	f0090214 			; <UNDEFINED> instruction: 0xf0090214
     db4:	03000003 	movweq	r0, #3
     db8:	0000d145 	andeq	sp, r0, r5, asr #2
     dbc:	09021800 	stmdbeq	r2, {fp, ip}
     dc0:	0000069d 	muleq	r0, sp, r6
     dc4:	00d14603 	sbcseq	r4, r1, r3, lsl #12
     dc8:	021c0000 	andseq	r0, ip, #0
     dcc:	000b2e09 	andeq	r2, fp, r9, lsl #28
     dd0:	d1470300 	mrsle	r0, (UNDEF: 119)
     dd4:	20000000 	andcs	r0, r0, r0
     dd8:	02b40902 	adcseq	r0, r4, #32768	; 0x8000
     ddc:	48030000 	stmdami	r3, {}	; <UNPREDICTABLE>
     de0:	000000d1 	ldrdeq	r0, [r0], -r1
     de4:	fc090224 	stc2	2, cr0, [r9], {36}	; 0x24
     de8:	03000005 	movweq	r0, #5
     dec:	000e3649 	andeq	r3, lr, r9, asr #12
     df0:	09022800 	stmdbeq	r2, {fp, sp}
     df4:	00000418 	andeq	r0, r0, r8, lsl r4
     df8:	00d14a03 	sbcseq	r4, r1, r3, lsl #20
     dfc:	02800000 	addeq	r0, r0, #0
     e00:	0006ee09 	andeq	lr, r6, r9, lsl #28
     e04:	d14b0300 	mrsle	r0, (UNDEF: 123)
     e08:	84000000 	strhi	r0, [r0], #-0
     e0c:	0a810902 	beq	fe04321c <__bss_end__+0x3e038c18>
     e10:	4c030000 	stcmi	0, cr0, [r3], {-0}
     e14:	000000d1 	ldrdeq	r0, [r0], -r1
     e18:	5b090288 	blpl	241840 <_start-0xbfdc67c0>
     e1c:	0300000d 	movweq	r0, #13
     e20:	0000d14d 	andeq	sp, r0, sp, asr #2
     e24:	09028c00 	stmdbeq	r2, {sl, fp, pc}
     e28:	00000827 	andeq	r0, r0, r7, lsr #16
     e2c:	00d14e03 	sbcseq	r4, r1, r3, lsl #28
     e30:	02900000 	addseq	r0, r0, #0
     e34:	000b1009 	andeq	r1, fp, r9
     e38:	d14f0300 	mrsle	r0, (UNDEF: 127)
     e3c:	94000000 	strls	r0, [r0], #-0
     e40:	0e4b0902 	vmlaeq.f16	s1, s22, s4	; <UNPREDICTABLE>
     e44:	50030000 	andpl	r0, r3, r0
     e48:	000000d1 	ldrdeq	r0, [r0], -r1
     e4c:	03090298 	movweq	r0, #37528	; 0x9298
     e50:	03000005 	movweq	r0, #5
     e54:	0000d151 	andeq	sp, r0, r1, asr r1
     e58:	09029c00 	stmdbeq	r2, {sl, fp, ip, pc}
     e5c:	00000316 	andeq	r0, r0, r6, lsl r3
     e60:	0e4b5203 	cdpeq	2, 4, cr5, cr11, cr3, {0}
     e64:	02a00000 	adceq	r0, r0, #0
     e68:	000caa09 	andeq	sl, ip, r9, lsl #20
     e6c:	d1530300 	cmple	r3, r0, lsl #6
     e70:	00000000 	andeq	r0, r0, r0
     e74:	0cba0903 			; <UNDEFINED> instruction: 0x0cba0903
     e78:	54030000 	strpl	r0, [r3], #-0
     e7c:	000000d1 	ldrdeq	r0, [r0], -r1
     e80:	fe090304 	cdp2	3, 0, cr0, cr9, cr4, {0}
     e84:	0300000b 	movweq	r0, #11
     e88:	0000d155 	andeq	sp, r0, r5, asr r1
     e8c:	09030800 	stmdbeq	r3, {fp}
     e90:	00000b97 	muleq	r0, r7, fp
     e94:	00d15603 	sbcseq	r5, r1, r3, lsl #12
     e98:	030c0000 	movweq	r0, #49152	; 0xc000
     e9c:	00097a09 	andeq	r7, r9, r9, lsl #20
     ea0:	d1570300 	cmple	r7, r0, lsl #6
     ea4:	10000000 	andne	r0, r0, r0
     ea8:	0c3f0903 			; <UNDEFINED> instruction: 0x0c3f0903
     eac:	58030000 	stmdapl	r3, {}	; <UNPREDICTABLE>
     eb0:	000000d1 	ldrdeq	r0, [r0], -r1
     eb4:	77090314 	smladvc	r9, r4, r3, r0
     eb8:	0300000b 	movweq	r0, #11
     ebc:	0000d159 	andeq	sp, r0, r9, asr r1
     ec0:	09031800 	stmdbeq	r3, {fp, ip}
     ec4:	00000e1b 	andeq	r0, r0, fp, lsl lr
     ec8:	00d15a03 	sbcseq	r5, r1, r3, lsl #20
     ecc:	031c0000 	tsteq	ip, #0
     ed0:	00053709 	andeq	r3, r5, r9, lsl #14
     ed4:	d15b0300 	cmple	fp, r0, lsl #6
     ed8:	20000000 	andcs	r0, r0, r0
     edc:	08150903 	ldmdaeq	r5, {r0, r1, r8, fp}
     ee0:	5c030000 	stcpl	0, cr0, [r3], {-0}
     ee4:	000000d1 	ldrdeq	r0, [r0], -r1
     ee8:	1c090324 	stcne	3, cr0, [r9], {36}	; 0x24
     eec:	03000003 	movweq	r0, #3
     ef0:	000e365d 	andeq	r3, lr, sp, asr r6
     ef4:	09032800 	stmdbeq	r3, {fp, sp}
     ef8:	000008a9 	andeq	r0, r0, r9, lsr #17
     efc:	00d15e03 	sbcseq	r5, r1, r3, lsl #28
     f00:	03800000 	orreq	r0, r0, #0
     f04:	000bc009 	andeq	ip, fp, r9
     f08:	d15f0300 	cmple	pc, r0, lsl #6
     f0c:	84000000 	strhi	r0, [r0], #-0
     f10:	0a9d0903 	beq	fe743324 <__bss_end__+0x3e738d20>
     f14:	60030000 	andvs	r0, r3, r0
     f18:	000000d1 	ldrdeq	r0, [r0], -r1
     f1c:	7d090388 	stcvc	3, cr0, [r9, #-544]	; 0xfffffde0
     f20:	0300000d 	movweq	r0, #13
     f24:	0000d161 	andeq	sp, r0, r1, ror #2
     f28:	09038c00 	stmdbeq	r3, {sl, fp, pc}
     f2c:	00000494 	muleq	r0, r4, r4
     f30:	00d16203 	sbcseq	r6, r1, r3, lsl #4
     f34:	03900000 	orrseq	r0, r0, #0
     f38:	00073609 	andeq	r3, r7, r9, lsl #12
     f3c:	d1630300 	cmnle	r3, r0, lsl #6
     f40:	94000000 	strls	r0, [r0], #-0
     f44:	06480903 	strbeq	r0, [r8], -r3, lsl #18
     f48:	64030000 	strvs	r0, [r3], #-0
     f4c:	000000d1 	ldrdeq	r0, [r0], -r1
     f50:	37090398 			; <UNDEFINED> instruction: 0x37090398
     f54:	03000009 	movweq	r0, #9
     f58:	0000d165 	andeq	sp, r0, r5, ror #2
     f5c:	09039c00 	stmdbeq	r3, {sl, fp, ip, pc}
     f60:	00000322 	andeq	r0, r0, r2, lsr #6
     f64:	0e4b6603 	cdpeq	6, 4, cr6, cr11, cr3, {0}
     f68:	03a00000 	moveq	r0, #0
     f6c:	00039c09 	andeq	r9, r3, r9, lsl #24
     f70:	d1670300 	cmnle	r7, r0, lsl #6
     f74:	00000000 	andeq	r0, r0, r0
     f78:	07800904 	streq	r0, [r0, r4, lsl #18]
     f7c:	68030000 	stmdavs	r3, {}	; <UNPREDICTABLE>
     f80:	000000d1 	ldrdeq	r0, [r0], -r1
     f84:	42090404 	andmi	r0, r9, #4, 8	; 0x4000000
     f88:	0300000e 	movweq	r0, #14
     f8c:	0000d169 	andeq	sp, r0, r9, ror #2
     f90:	09040800 	stmdbeq	r4, {fp}
     f94:	00000887 	andeq	r0, r0, r7, lsl #17
     f98:	00d16a03 	sbcseq	r6, r1, r3, lsl #20
     f9c:	040c0000 	streq	r0, [ip], #-0
     fa0:	000ba709 	andeq	sl, fp, r9, lsl #14
     fa4:	d16b0300 	cmnle	fp, r0, lsl #6
     fa8:	10000000 	andne	r0, r0, r0
     fac:	0a120904 	beq	4833c4 <_start-0xbfb84c3c>
     fb0:	6c030000 	stcvs	0, cr0, [r3], {-0}
     fb4:	000000d1 	ldrdeq	r0, [r0], -r1
     fb8:	e8090414 	stmda	r9, {r2, r4, sl}
     fbc:	0300000b 	movweq	r0, #11
     fc0:	0000d16d 	andeq	sp, r0, sp, ror #2
     fc4:	09041800 	stmdbeq	r4, {fp, ip}
     fc8:	00000746 	andeq	r0, r0, r6, asr #14
     fcc:	00d16e03 	sbcseq	r6, r1, r3, lsl #28
     fd0:	041c0000 	ldreq	r0, [ip], #-0
     fd4:	000c4f09 	andeq	r4, ip, r9, lsl #30
     fd8:	d16f0300 	cmnle	pc, r0, lsl #6
     fdc:	20000000 	andcs	r0, r0, r0
     fe0:	03280904 			; <UNDEFINED> instruction: 0x03280904
     fe4:	70030000 	andvc	r0, r3, r0
     fe8:	00000e60 	andeq	r0, r0, r0, ror #28
     fec:	29090424 	stmdbcs	r9, {r2, r5, sl}
     ff0:	03000006 	movweq	r0, #6
     ff4:	0000d171 	andeq	sp, r0, r1, ror r1
     ff8:	09080000 	stmdbeq	r8, {}	; <UNPREDICTABLE>
     ffc:	0000087e 	andeq	r0, r0, lr, ror r8
    1000:	00d17203 	sbcseq	r7, r1, r3, lsl #4
    1004:	08040000 	stmdaeq	r4, {}	; <UNPREDICTABLE>
    1008:	000db709 	andeq	fp, sp, r9, lsl #14
    100c:	d1730300 	cmnle	r3, r0, lsl #6
    1010:	08000000 	stmdaeq	r0, {}	; <UNPREDICTABLE>
    1014:	08660908 	stmdaeq	r6!, {r3, r8, fp}^
    1018:	74030000 	strvc	r0, [r3], #-0
    101c:	000000d1 	ldrdeq	r0, [r0], -r1
    1020:	2e09080c 	cdpcs	8, 0, cr0, cr9, cr12, {0}
    1024:	03000003 	movweq	r0, #3
    1028:	000e7575 	andeq	r7, lr, r5, ror r5
    102c:	09081000 	stmdbeq	r8, {ip}
    1030:	00000a73 	andeq	r0, r0, r3, ror sl
    1034:	00d17603 	sbcseq	r7, r1, r3, lsl #12
    1038:	08200000 	stmdaeq	r0!, {}	; <UNPREDICTABLE>
    103c:	0005e509 	andeq	lr, r5, r9, lsl #10
    1040:	d1770300 	cmnle	r7, r0, lsl #6
    1044:	24000000 	strcs	r0, [r0], #-0
    1048:	0d940908 	vldreq.16	s0, [r4, #16]	; <UNPREDICTABLE>
    104c:	78030000 	stmdavc	r3, {}	; <UNPREDICTABLE>
    1050:	000000d1 	ldrdeq	r0, [r0], -r1
    1054:	e2090828 	and	r0, r9, #40, 16	; 0x280000
    1058:	03000008 	movweq	r0, #8
    105c:	0000d179 	andeq	sp, r0, r9, ror r1
    1060:	09082c00 	stmdbeq	r8, {sl, fp, sp}
    1064:	00000aad 	andeq	r0, r0, sp, lsr #21
    1068:	00d17a03 	sbcseq	r7, r1, r3, lsl #20
    106c:	08300000 	ldmdaeq	r0!, {}	; <UNPREDICTABLE>
    1070:	00048b09 	andeq	r8, r4, r9, lsl #22
    1074:	d17b0300 	cmnle	fp, r0, lsl #6
    1078:	34000000 	strcc	r0, [r0], #-0
    107c:	0c280908 			; <UNDEFINED> instruction: 0x0c280908
    1080:	7c030000 	stcvc	0, cr0, [r3], {-0}
    1084:	000000d1 	ldrdeq	r0, [r0], -r1
    1088:	8d090838 	stchi	8, cr0, [r9, #-224]	; 0xffffff20
    108c:	03000007 	movweq	r0, #7
    1090:	0000d17d 	andeq	sp, r0, sp, ror r1
    1094:	09083c00 	stmdbeq	r8, {sl, fp, ip, sp}
    1098:	00000334 	andeq	r0, r0, r4, lsr r3
    109c:	0e8a7e03 	cdpeq	14, 8, cr7, cr10, cr3, {0}
    10a0:	08400000 	stmdaeq	r0, {}^	; <UNPREDICTABLE>
    10a4:	0008ec09 	andeq	lr, r8, r9, lsl #24
    10a8:	d17f0300 	cmnle	pc, r0, lsl #6
    10ac:	80000000 	andhi	r0, r0, r0
    10b0:	0da80908 			; <UNDEFINED> instruction: 0x0da80908
    10b4:	80030000 	andhi	r0, r3, r0
    10b8:	000000d1 	ldrdeq	r0, [r0], -r1
    10bc:	e0090884 	and	r0, r9, r4, lsl #17
    10c0:	0300000a 	movweq	r0, #10
    10c4:	0000d181 	andeq	sp, r0, r1, lsl #3
    10c8:	09088800 	stmdbeq	r8, {fp, pc}
    10cc:	00000d9e 	muleq	r0, lr, sp
    10d0:	00d18203 	sbcseq	r8, r1, r3, lsl #4
    10d4:	088c0000 	stmeq	ip, {}	; <UNPREDICTABLE>
    10d8:	00099809 	andeq	r9, r9, r9, lsl #16
    10dc:	d1830300 	orrle	r0, r3, r0, lsl #6
    10e0:	90000000 	andls	r0, r0, r0
    10e4:	094f0908 	stmdbeq	pc, {r3, r8, fp}^	; <UNPREDICTABLE>
    10e8:	84030000 	strhi	r0, [r3], #-0
    10ec:	000000d1 	ldrdeq	r0, [r0], -r1
    10f0:	6a090894 	bvs	243348 <_start-0xbfdc4cb8>
    10f4:	03000009 	movweq	r0, #9
    10f8:	0000d185 	andeq	sp, r0, r5, lsl #3
    10fc:	09089800 	stmdbeq	r8, {fp, ip, pc}
    1100:	00000afa 	strdeq	r0, [r0], -sl
    1104:	00d18603 	sbcseq	r8, r1, r3, lsl #12
    1108:	089c0000 	ldmeq	ip, {}	; <UNPREDICTABLE>
    110c:	00090109 	andeq	r0, r9, r9, lsl #2
    1110:	d1870300 	orrle	r0, r7, r0, lsl #6
    1114:	a0000000 	andge	r0, r0, r0
    1118:	05110908 	ldreq	r0, [r1, #-2312]	; 0xfffff6f8
    111c:	88030000 	stmdahi	r3, {}	; <UNPREDICTABLE>
    1120:	000000d1 	ldrdeq	r0, [r0], -r1
    1124:	3a0908a4 	bcc	2433bc <_start-0xbfdc4c44>
    1128:	03000003 	movweq	r0, #3
    112c:	000de289 	andeq	lr, sp, r9, lsl #5
    1130:	0908a800 	stmdbeq	r8, {fp, sp, pc}
    1134:	000007a6 	andeq	r0, r0, r6, lsr #15
    1138:	00d18a03 	sbcseq	r8, r1, r3, lsl #20
    113c:	08c00000 	stmiaeq	r0, {}^	; <UNPREDICTABLE>
    1140:	00077409 	andeq	r7, r7, r9, lsl #8
    1144:	d18b0300 	orrle	r0, fp, r0, lsl #6
    1148:	c4000000 	strgt	r0, [r0], #-0
    114c:	06730908 	ldrbteq	r0, [r3], -r8, lsl #18
    1150:	8c030000 	stchi	0, cr0, [r3], {-0}
    1154:	000000d1 	ldrdeq	r0, [r0], -r1
    1158:	ca0908c8 	bgt	243480 <_start-0xbfdc4b80>
    115c:	0300000c 	movweq	r0, #12
    1160:	0000d18d 	andeq	sp, r0, sp, lsl #3
    1164:	0908cc00 	stmdbeq	r8, {sl, fp, lr, pc}
    1168:	000006c9 	andeq	r0, r0, r9, asr #13
    116c:	00d18e03 	sbcseq	r8, r1, r3, lsl #28
    1170:	08d00000 	ldmeq	r0, {}^	; <UNPREDICTABLE>
    1174:	000d4409 	andeq	r4, sp, r9, lsl #8
    1178:	d18f0300 	orrle	r0, pc, r0, lsl #6
    117c:	d4000000 	strle	r0, [r0], #-0
    1180:	0aca0908 	beq	ff2835a8 <__bss_end__+0x3f278fa4>
    1184:	90030000 	andls	r0, r3, r0
    1188:	000000d1 	ldrdeq	r0, [r0], -r1
    118c:	4f0908d8 	svcmi	0x000908d8
    1190:	03000008 	movweq	r0, #8
    1194:	0000d191 	muleq	r0, r1, r1
    1198:	0908dc00 	stmdbeq	r8, {sl, fp, ip, lr, pc}
    119c:	00000d0c 	andeq	r0, r0, ip, lsl #26
    11a0:	00d19203 	sbcseq	r9, r1, r3, lsl #4
    11a4:	08e00000 	stmiaeq	r0!, {}^	; <UNPREDICTABLE>
    11a8:	000b0409 	andeq	r0, fp, r9, lsl #8
    11ac:	d1930300 	orrsle	r0, r3, r0, lsl #6
    11b0:	e4000000 	str	r0, [r0], #-0
    11b4:	061c0908 	ldreq	r0, [ip], -r8, lsl #18
    11b8:	94030000 	strls	r0, [r3], #-0
    11bc:	000000d1 	ldrdeq	r0, [r0], -r1
    11c0:	b90908e8 	stmdblt	r9, {r3, r5, r6, r7, fp}
    11c4:	03000008 	movweq	r0, #8
    11c8:	0000d195 	muleq	r0, r5, r1
    11cc:	0908ec00 	stmdbeq	r8, {sl, fp, sp, lr, pc}
    11d0:	00000449 	andeq	r0, r0, r9, asr #8
    11d4:	00d19603 	sbcseq	r9, r1, r3, lsl #12
    11d8:	08f00000 	ldmeq	r0!, {}^	; <UNPREDICTABLE>
    11dc:	000cd509 	andeq	sp, ip, r9, lsl #10
    11e0:	d1970300 	orrsle	r0, r7, r0, lsl #6
    11e4:	f4000000 	vst4.8	{d0-d3}, [r0], r0
    11e8:	03810908 	orreq	r0, r1, #8, 18	; 0x20000
    11ec:	98030000 	stmdals	r3, {}	; <UNPREDICTABLE>
    11f0:	000000d1 	ldrdeq	r0, [r0], -r1
    11f4:	4f0908f8 	svcmi	0x000908f8
    11f8:	03000005 	movweq	r0, #5
    11fc:	0000d199 	muleq	r0, r9, r1
    1200:	0908fc00 	stmdbeq	r8, {sl, fp, ip, sp, lr, pc}
    1204:	00000cf3 	strdeq	r0, [r0], -r3
    1208:	00d19a03 	sbcseq	r9, r1, r3, lsl #20
    120c:	09000000 	stmdbeq	r0, {}	; <UNPREDICTABLE>
    1210:	000e0809 	andeq	r0, lr, r9, lsl #16
    1214:	d19b0300 	orrsle	r0, fp, r0, lsl #6
    1218:	04000000 	streq	r0, [r0], #-0
    121c:	06580909 	ldrbeq	r0, [r8], -r9, lsl #18
    1220:	9c030000 	stcls	0, cr0, [r3], {-0}
    1224:	00000db8 			; <UNDEFINED> instruction: 0x00000db8
    1228:	67090908 	strvs	r0, [r9, -r8, lsl #18]
    122c:	03000006 	movweq	r0, #6
    1230:	0000d19d 	muleq	r0, sp, r1
    1234:	09090c00 	stmdbeq	r9, {sl, fp}
    1238:	00000340 	andeq	r0, r0, r0, asr #6
    123c:	0db89e03 	ldceq	14, cr9, [r8, #12]!
    1240:	09100000 	ldmdbeq	r0, {}	; <UNPREDICTABLE>
    1244:	000b5d09 	andeq	r5, fp, r9, lsl #26
    1248:	d19f0300 	orrsle	r0, pc, r0, lsl #6
    124c:	14000000 	strne	r0, [r0], #-0
    1250:	0a080909 	beq	20367c <_start-0xbfe04984>
    1254:	a0030000 	andge	r0, r3, r0
    1258:	000000d1 	ldrdeq	r0, [r0], -r1
    125c:	69090918 	stmdbvs	r9, {r3, r4, r8, fp}
    1260:	0300000d 	movweq	r0, #13
    1264:	0000d1a1 	andeq	sp, r0, r1, lsr #3
    1268:	09091c00 	stmdbeq	r9, {sl, fp, ip}
    126c:	00000704 	andeq	r0, r0, r4, lsl #14
    1270:	00d1a203 	sbcseq	sl, r1, r3, lsl #4
    1274:	09200000 	stmdbeq	r0!, {}	; <UNPREDICTABLE>
    1278:	00084509 	andeq	r4, r8, r9, lsl #10
    127c:	d1a30300 			; <UNDEFINED> instruction: 0xd1a30300
    1280:	24000000 	strcs	r0, [r0], #-0
    1284:	0a1a0909 	beq	6836b0 <_start-0xbf984950>
    1288:	a4030000 	strge	r0, [r3], #-0
    128c:	000000d1 	ldrdeq	r0, [r0], -r1
    1290:	1a090928 	bne	243738 <_start-0xbfdc48c8>
    1294:	03000005 	movweq	r0, #5
    1298:	0000d1a5 	andeq	sp, r0, r5, lsr #3
    129c:	09092c00 	stmdbeq	r9, {sl, fp, sp}
    12a0:	00000b69 	andeq	r0, r0, r9, ror #22
    12a4:	00d1a603 	sbcseq	sl, r1, r3, lsl #12
    12a8:	09300000 	ldmdbeq	r0!, {}	; <UNPREDICTABLE>
    12ac:	0003c909 	andeq	ip, r3, r9, lsl #18
    12b0:	d1a70300 			; <UNDEFINED> instruction: 0xd1a70300
    12b4:	34000000 	strcc	r0, [r0], #-0
    12b8:	043d0909 	ldrteq	r0, [sp], #-2313	; 0xfffff6f7
    12bc:	a8030000 	stmdage	r3, {}	; <UNPREDICTABLE>
    12c0:	00000e9f 	muleq	r0, pc, lr	; <UNPREDICTABLE>
    12c4:	1b090938 	blne	2437ac <_start-0xbfdc4854>
    12c8:	03000009 	movweq	r0, #9
    12cc:	0000d1a9 	andeq	sp, r0, r9, lsr #3
    12d0:	09098000 	stmdbeq	r9, {pc}
    12d4:	00000c1c 	andeq	r0, r0, ip, lsl ip
    12d8:	00d1aa03 	sbcseq	sl, r1, r3, lsl #20
    12dc:	09840000 	stmibeq	r4, {}	; <UNPREDICTABLE>
    12e0:	00056a09 	andeq	r6, r5, r9, lsl #20
    12e4:	d1ab0300 			; <UNDEFINED> instruction: 0xd1ab0300
    12e8:	88000000 	stmdahi	r0, {}	; <UNPREDICTABLE>
    12ec:	04790909 	ldrbteq	r0, [r9], #-2313	; 0xfffff6f7
    12f0:	ac030000 	stcge	0, cr0, [r3], {-0}
    12f4:	000000d1 	ldrdeq	r0, [r0], -r1
    12f8:	2a09098c 	bcs	243930 <_start-0xbfdc46d0>
    12fc:	03000007 	movweq	r0, #7
    1300:	0000d1ad 	andeq	sp, r0, sp, lsr #3
    1304:	09099000 	stmdbeq	r9, {ip, pc}
    1308:	00000c66 	andeq	r0, r0, r6, ror #24
    130c:	00d1ae03 	sbcseq	sl, r1, r3, lsl #28
    1310:	09940000 	ldmibeq	r4, {}	; <UNPREDICTABLE>
    1314:	0005d909 	andeq	sp, r5, r9, lsl #18
    1318:	d1af0300 			; <UNDEFINED> instruction: 0xd1af0300
    131c:	98000000 	stmdals	r0, {}	; <UNPREDICTABLE>
    1320:	0bdc0909 	bleq	ff70374c <__bss_end__+0x3f6f9148>
    1324:	b0030000 	andlt	r0, r3, r0
    1328:	000000d1 	ldrdeq	r0, [r0], -r1
    132c:	5109099c 			; <UNDEFINED> instruction: 0x5109099c
    1330:	03000007 	movweq	r0, #7
    1334:	0000d1b1 			; <UNDEFINED> instruction: 0x0000d1b1
    1338:	0909a000 	stmdbeq	r9, {sp, pc}
    133c:	000007ff 	strdeq	r0, [r0], -pc	; <UNPREDICTABLE>
    1340:	00d1b203 	sbcseq	fp, r1, r3, lsl #4
    1344:	09a40000 	stmibeq	r4!, {}	; <UNPREDICTABLE>
    1348:	000bd009 	andeq	sp, fp, r9
    134c:	d1b30300 			; <UNDEFINED> instruction: 0xd1b30300
    1350:	a8000000 	stmdage	r0, {}	; <UNPREDICTABLE>
    1354:	04e70909 	strbteq	r0, [r7], #2313	; 0x909
    1358:	b4030000 	strlt	r0, [r3], #-0
    135c:	000000d1 	ldrdeq	r0, [r0], -r1
    1360:	430909ac 	movwmi	r0, #39340	; 0x99ac
    1364:	03000004 	movweq	r0, #4
    1368:	000eb4b5 			; <UNDEFINED> instruction: 0x000eb4b5
    136c:	0909b000 	stmdbeq	r9, {ip, sp, pc}
    1370:	000007e3 	andeq	r0, r0, r3, ror #15
    1374:	00d1b603 	sbcseq	fp, r1, r3, lsl #12
    1378:	0a000000 	beq	1380 <_start-0xc0006c80>
    137c:	000ab509 	andeq	fp, sl, r9, lsl #10
    1380:	d1b70300 			; <UNDEFINED> instruction: 0xd1b70300
    1384:	04000000 	streq	r0, [r0], #-0
    1388:	08f3090a 	ldmeq	r3!, {r1, r3, r8, fp}^
    138c:	b8030000 	stmdalt	r3, {}	; <UNPREDICTABLE>
    1390:	000000d1 	ldrdeq	r0, [r0], -r1
    1394:	3e090a08 	vmlacc.f32	s0, s18, s16
    1398:	0300000b 	movweq	r0, #11
    139c:	0000d1b9 			; <UNDEFINED> instruction: 0x0000d1b9
    13a0:	090a0c00 	stmdbeq	sl, {sl, fp}
    13a4:	00000c0e 	andeq	r0, r0, lr, lsl #24
    13a8:	00d1ba03 	sbcseq	fp, r1, r3, lsl #20
    13ac:	0a100000 	beq	4013b4 <_start-0xbfc06c4c>
    13b0:	0002f009 	andeq	pc, r2, r9
    13b4:	d1bb0300 			; <UNDEFINED> instruction: 0xd1bb0300
    13b8:	14000000 	strne	r0, [r0], #-0
    13bc:	0bf0090a 	bleq	ffc037ec <__bss_end__+0x3fbf91e8>
    13c0:	bc030000 	stclt	0, cr0, [r3], {-0}
    13c4:	000000d1 	ldrdeq	r0, [r0], -r1
    13c8:	d4090a18 	strle	r0, [r9], #-2584	; 0xfffff5e8
    13cc:	03000002 	movweq	r0, #2
    13d0:	0000d1bd 			; <UNDEFINED> instruction: 0x0000d1bd
    13d4:	090a1c00 	stmdbeq	sl, {sl, fp, ip}
    13d8:	0000098a 	andeq	r0, r0, sl, lsl #19
    13dc:	00d1be03 	sbcseq	fp, r1, r3, lsl #28
    13e0:	0a200000 	beq	8013e8 <_start-0xbf806c18>
    13e4:	000c5809 	andeq	r5, ip, r9, lsl #16
    13e8:	d1bf0300 			; <UNDEFINED> instruction: 0xd1bf0300
    13ec:	24000000 	strcs	r0, [r0], #-0
    13f0:	06bb090a 	ldrteq	r0, [fp], sl, lsl #18
    13f4:	c0030000 	andgt	r0, r3, r0
    13f8:	000000d1 	ldrdeq	r0, [r0], -r1
    13fc:	8f090a28 	svchi	0x00090a28
    1400:	03000005 	movweq	r0, #5
    1404:	0000d1c1 	andeq	sp, r0, r1, asr #3
    1408:	090a2c00 	stmdbeq	sl, {sl, fp, sp}
    140c:	00000e3c 	andeq	r0, r0, ip, lsr lr
    1410:	0da3c203 	sfmeq	f4, 1, [r3, #12]!
    1414:	0a300000 	beq	c0141c <_start-0xbf406be4>
    1418:	00046a09 	andeq	r6, r4, r9, lsl #20
    141c:	d1c30300 	bicle	r0, r3, r0, lsl #6
    1420:	38000000 	stmdacc	r0, {}	; <UNPREDICTABLE>
    1424:	070f090a 	streq	r0, [pc, -sl, lsl #18]
    1428:	c4030000 	strgt	r0, [r3], #-0
    142c:	000000d1 	ldrdeq	r0, [r0], -r1
    1430:	56090a3c 			; <UNDEFINED> instruction: 0x56090a3c
    1434:	03000004 	movweq	r0, #4
    1438:	000e8ac5 	andeq	r8, lr, r5, asr #21
    143c:	090a4000 	stmdbeq	sl, {lr}
    1440:	000009dd 	ldrdeq	r0, [r0], -sp
    1444:	00d1c603 	sbcseq	ip, r1, r3, lsl #12
    1448:	0a800000 	beq	fe001450 <__bss_end__+0x3dff6e4c>
    144c:	000c8e09 	andeq	r8, ip, r9, lsl #28
    1450:	d1c70300 	bicle	r0, r7, r0, lsl #6
    1454:	84000000 	strhi	r0, [r0], #-0
    1458:	03d6090a 	bicseq	r0, r6, #163840	; 0x28000
    145c:	c8030000 	stmdagt	r3, {}	; <UNPREDICTABLE>
    1460:	000000d1 	ldrdeq	r0, [r0], -r1
    1464:	8f090a88 	svchi	0x00090a88
    1468:	03000006 	movweq	r0, #6
    146c:	0000d1c9 	andeq	sp, r0, r9, asr #3
    1470:	090a8c00 	stmdbeq	sl, {sl, fp, pc}
    1474:	00000a24 	andeq	r0, r0, r4, lsr #20
    1478:	00d1ca03 	sbcseq	ip, r1, r3, lsl #20
    147c:	0a900000 	beq	fe401484 <__bss_end__+0x3e3f6e80>
    1480:	0008d409 	andeq	sp, r8, r9, lsl #8
    1484:	d1cb0300 	bicle	r0, fp, r0, lsl #6
    1488:	94000000 	strls	r0, [r0], #-0
    148c:	0a8f090a 	beq	fe3c38bc <__bss_end__+0x3e3b92b8>
    1490:	cc030000 	stcgt	0, cr0, [r3], {-0}
    1494:	000000d1 	ldrdeq	r0, [r0], -r1
    1498:	73090a98 	movwvc	r0, #39576	; 0x9a98
    149c:	03000003 	movweq	r0, #3
    14a0:	0000d1cd 	andeq	sp, r0, sp, asr #3
    14a4:	090a9c00 	stmdbeq	sl, {sl, fp, ip, pc}
    14a8:	000007c1 	andeq	r0, r0, r1, asr #15
    14ac:	00d1ce03 	sbcseq	ip, r1, r3, lsl #28
    14b0:	0aa00000 	beq	fe8014b8 <__bss_end__+0x3e7f6eb4>
    14b4:	000a6509 	andeq	r6, sl, r9, lsl #10
    14b8:	d1cf0300 	bicle	r0, pc, r0, lsl #6
    14bc:	a4000000 	strge	r0, [r0], #-0
    14c0:	0dfa090a 			; <UNDEFINED> instruction: 0x0dfa090a
    14c4:	d0030000 	andle	r0, r3, r0
    14c8:	000000d1 	ldrdeq	r0, [r0], -r1
    14cc:	cb090aa8 	blgt	243f74 <_start-0xbfdc408c>
    14d0:	03000005 	movweq	r0, #5
    14d4:	0000d1d1 	ldrdeq	sp, [r0], -r1
    14d8:	090aac00 	stmdbeq	sl, {sl, fp, sp, pc}
    14dc:	00000cfe 	strdeq	r0, [r0], -lr
    14e0:	00d1d203 	sbcseq	sp, r1, r3, lsl #4
    14e4:	0ab00000 	beq	fec014ec <__bss_end__+0x3ebf6ee8>
    14e8:	0005bd09 	andeq	fp, r5, r9, lsl #26
    14ec:	d1d30300 	bicsle	r0, r3, r0, lsl #6
    14f0:	b4000000 	strlt	r0, [r0], #-0
    14f4:	07b2090a 	ldreq	r0, [r2, sl, lsl #18]!
    14f8:	d4030000 	strle	r0, [r3], #-0
    14fc:	000000d1 	ldrdeq	r0, [r0], -r1
    1500:	28090ab8 	stmdacs	r9, {r3, r4, r5, r7, r9, fp}
    1504:	03000005 	movweq	r0, #5
    1508:	0000d1d5 	ldrdeq	sp, [r0], -r5
    150c:	090abc00 	stmdbeq	sl, {sl, fp, ip, sp, pc}
    1510:	00000974 	andeq	r0, r0, r4, ror r9
    1514:	0e8ad603 	cdpeq	6, 8, cr13, cr10, cr3, {0}
    1518:	0ac00000 	beq	ff001520 <__bss_end__+0x3eff6f1c>
    151c:	000d1809 	andeq	r1, sp, r9, lsl #16
    1520:	d1d70300 	bicsle	r0, r7, r0, lsl #6
    1524:	00000000 	andeq	r0, r0, r0
    1528:	0dbe090b 			; <UNDEFINED> instruction: 0x0dbe090b
    152c:	d8030000 	stmdale	r3, {}	; <UNPREDICTABLE>
    1530:	000000d1 	ldrdeq	r0, [r0], -r1
    1534:	ce090b04 	vmlagt.f64	d0, d9, d4
    1538:	0300000d 	movweq	r0, #13
    153c:	0000d1d9 	ldrdeq	sp, [r0], -r9
    1540:	090b0800 	stmdbeq	fp, {fp}
    1544:	0000090b 	andeq	r0, r0, fp, lsl #18
    1548:	00d1da03 	sbcseq	sp, r1, r3, lsl #20
    154c:	0b0c0000 	bleq	301554 <_start-0xbfd06aac>
    1550:	00083509 	andeq	r3, r8, r9, lsl #10
    1554:	d1db0300 	bicsle	r0, fp, r0, lsl #6
    1558:	10000000 	andne	r0, r0, r0
    155c:	0b1e090b 	bleq	783990 <_start-0xbf884670>
    1560:	dc030000 	stcle	0, cr0, [r3], {-0}
    1564:	000000d1 	ldrdeq	r0, [r0], -r1
    1568:	fe090b14 	mcr2	11, 0, r0, cr9, cr4, {0}	; <UNPREDICTABLE>
    156c:	03000003 	movweq	r0, #3
    1570:	0000d1dd 	ldrdeq	sp, [r0], -sp	; <UNPREDICTABLE>
    1574:	090b1800 	stmdbeq	fp, {fp, ip}
    1578:	000006ab 	andeq	r0, r0, fp, lsr #13
    157c:	00d1de03 	sbcseq	sp, r1, r3, lsl #28
    1580:	0b1c0000 	bleq	701588 <_start-0xbf906a78>
    1584:	0005ad09 	andeq	sl, r5, r9, lsl #26
    1588:	d1df0300 	bicsle	r0, pc, r0, lsl #6
    158c:	20000000 	andcs	r0, r0, r0
    1590:	0aea090b 	beq	ffa839c4 <__bss_end__+0x3fa793c0>
    1594:	e0030000 	and	r0, r3, r0
    1598:	000000d1 	ldrdeq	r0, [r0], -r1
    159c:	96090b24 	strls	r0, [r9], -r4, lsr #22
    15a0:	03000007 	movweq	r0, #7
    15a4:	0000d1e1 	andeq	sp, r0, r1, ror #3
    15a8:	090b2800 	stmdbeq	fp, {fp, sp}
    15ac:	000004f3 	strdeq	r0, [r0], -r3
    15b0:	00d1e203 	sbcseq	lr, r1, r3, lsl #4
    15b4:	0b2c0000 	bleq	b015bc <_start-0xbf506a44>
    15b8:	0009bd09 	andeq	fp, r9, r9, lsl #26
    15bc:	d1e30300 	mvnle	r0, r0, lsl #6
    15c0:	30000000 	andcc	r0, r0, r0
    15c4:	02c4090b 	sbceq	r0, r4, #180224	; 0x2c000
    15c8:	e4030000 	str	r0, [r3], #-0
    15cc:	000000d1 	ldrdeq	r0, [r0], -r1
    15d0:	b8090b34 	stmdalt	r9, {r2, r4, r5, r8, r9, fp}
    15d4:	03000003 	movweq	r0, #3
    15d8:	0000d1e5 	andeq	sp, r0, r5, ror #3
    15dc:	090b3800 	stmdbeq	fp, {fp, ip, sp}
    15e0:	0000067e 	andeq	r0, r0, lr, ror r6
    15e4:	00d1e603 	sbcseq	lr, r1, r3, lsl #12
    15e8:	0b3c0000 	bleq	f015f0 <_start-0xbf106a10>
    15ec:	00054909 	andeq	r4, r5, r9, lsl #18
    15f0:	8ae70300 	bhi	ff9c21f8 <__bss_end__+0x3f9b7bf4>
    15f4:	4000000e 	andmi	r0, r0, lr
    15f8:	0363090b 	cmneq	r3, #180224	; 0x2c000
    15fc:	e8030000 	stmda	r3, {}	; <UNPREDICTABLE>
    1600:	000000d1 	ldrdeq	r0, [r0], -r1
    1604:	02090b80 	andeq	r0, r9, #128, 22	; 0x20000
    1608:	03000006 	movweq	r0, #6
    160c:	0000d1e9 	andeq	sp, r0, r9, ror #3
    1610:	090b8400 	stmdbeq	fp, {sl, pc}
    1614:	00000632 	andeq	r0, r0, r2, lsr r6
    1618:	00d1ea03 	sbcseq	lr, r1, r3, lsl #20
    161c:	0b880000 	bleq	fe201624 <__bss_end__+0x3e1f7020>
    1620:	000b8709 	andeq	r8, fp, r9, lsl #14
    1624:	d1eb0300 	mvnle	r0, r0, lsl #6
    1628:	8c000000 	stchi	0, cr0, [r0], {-0}
    162c:	086e090b 	stmdaeq	lr!, {r0, r1, r3, r8, fp}^
    1630:	ec030000 	stc	0, cr0, [r3], {-0}
    1634:	000000d1 	ldrdeq	r0, [r0], -r1
    1638:	cd090b90 	vstrgt	d0, [r9, #-576]	; 0xfffffdc0
    163c:	03000009 	movweq	r0, #9
    1640:	0000d1ed 	andeq	sp, r0, sp, ror #3
    1644:	090b9400 	stmdbeq	fp, {sl, ip, pc}
    1648:	000009ad 	andeq	r0, r0, sp, lsr #19
    164c:	00d1ee03 	sbcseq	lr, r1, r3, lsl #28
    1650:	0b980000 	bleq	fe601658 <__bss_end__+0x3e5f7054>
    1654:	000ce309 	andeq	lr, ip, r9, lsl #6
    1658:	d1ef0300 	mvnle	r0, r0, lsl #6
    165c:	9c000000 	stcls	0, cr0, [r0], {-0}
    1660:	0927090b 	stmdbeq	r7!, {r0, r1, r3, r8, fp}
    1664:	f0030000 			; <UNDEFINED> instruction: 0xf0030000
    1668:	000000d1 	ldrdeq	r0, [r0], -r1
    166c:	a8090ba0 	stmdage	r9, {r5, r7, r8, r9, fp}
    1670:	03000003 	movweq	r0, #3
    1674:	0000d1f1 	strdeq	sp, [r0], -r1
    1678:	090ba400 	stmdbeq	fp, {sl, sp, pc}
    167c:	00000dde 	ldrdeq	r0, [r0], -lr
    1680:	00d1f203 	sbcseq	pc, r1, r3, lsl #4
    1684:	0ba80000 	bleq	fea0168c <__bss_end__+0x3e9f7088>
    1688:	00057f09 	andeq	r7, r5, r9, lsl #30
    168c:	d1f30300 	mvnsle	r0, r0, lsl #6
    1690:	ac000000 	stcge	0, cr0, [r0], {-0}
    1694:	059d090b 	ldreq	r0, [sp, #2315]	; 0x90b
    1698:	f4030000 	vst4.8	{d0-d3}, [r3], r0
    169c:	000000d1 	ldrdeq	r0, [r0], -r1
    16a0:	32090bb0 	andcc	r0, r9, #176, 22	; 0x2c000
    16a4:	0300000a 	movweq	r0, #10
    16a8:	0000d1f5 	strdeq	sp, [r0], -r5
    16ac:	090bb400 	stmdbeq	fp, {sl, ip, sp, pc}
    16b0:	00000559 	andeq	r0, r0, r9, asr r5
    16b4:	00d1f603 	sbcseq	pc, r1, r3, lsl #12
    16b8:	0bb80000 	bleq	fee016c0 <__bss_end__+0x3edf70bc>
    16bc:	0006dd09 	andeq	sp, r6, r9, lsl #26
    16c0:	d1f70300 	mvnsle	r0, r0, lsl #6
    16c4:	bc000000 	stclt	0, cr0, [r0], {-0}
    16c8:	075d090b 	ldrbeq	r0, [sp, -fp, lsl #18]
    16cc:	f8030000 			; <UNDEFINED> instruction: 0xf8030000
    16d0:	00000e8a 	andeq	r0, r0, sl, lsl #29
    16d4:	63090bc0 	movwvs	r0, #39872	; 0x9bc0
    16d8:	03000007 	movweq	r0, #7
    16dc:	0000d1f9 	strdeq	sp, [r0], -r9
    16e0:	090c0000 	stmdbeq	ip, {}	; <UNPREDICTABLE>
    16e4:	00000485 	andeq	r0, r0, r5, lsl #9
    16e8:	0e75fa03 	vaddeq.f32	s31, s10, s6
    16ec:	0c040000 	stceq	0, cr0, [r4], {-0}
    16f0:	000c8609 	andeq	r8, ip, r9, lsl #12
    16f4:	d1fb0300 	mvnsle	r0, r0, lsl #6
    16f8:	14000000 	strne	r0, [r0], #-0
    16fc:	0e2b090c 	vmuleq.f16	s0, s22, s24	; <UNPREDICTABLE>
    1700:	fc030000 	stc2	0, cr0, [r3], {-0}
    1704:	000000d1 	ldrdeq	r0, [r0], -r1
    1708:	fe090c18 	mcr2	12, 0, r0, cr9, cr8, {0}
    170c:	03000002 	movweq	r0, #2
    1710:	000ec9fd 	strdeq	ip, [lr], -sp
    1714:	090c1c00 	stmdbeq	ip, {sl, fp, ip}
    1718:	00000a7c 	andeq	r0, r0, ip, ror sl
    171c:	00d1fe03 	sbcseq	pc, r1, r3, lsl #28
    1720:	0ff40000 	svceq	0x00f40000
    1724:	5244490a 	subpl	r4, r4, #163840	; 0x28000
    1728:	d1ff0300 	mvnsle	r0, r0, lsl #6
    172c:	f8000000 			; <UNDEFINED> instruction: 0xf8000000
    1730:	076f0b0f 	strbeq	r0, [pc, -pc, lsl #22]!
    1734:	00030000 	andeq	r0, r3, r0
    1738:	0000d101 	andeq	sp, r0, r1, lsl #2
    173c:	000ffc00 	andeq	pc, pc, r0, lsl #24
    1740:	0000d10c 	andeq	sp, r0, ip, lsl #2
    1744:	000da300 	andeq	sl, sp, r0, lsl #6
    1748:	00ca0d00 	sbceq	r0, sl, r0, lsl #26
    174c:	00010000 	andeq	r0, r1, r0
    1750:	000d9306 	andeq	r9, sp, r6, lsl #6
    1754:	00d10c00 	sbcseq	r0, r1, r0, lsl #24
    1758:	0db80000 	ldceq	0, cr0, [r8]
    175c:	ca0d0000 	bgt	341764 <_start-0xbfcc689c>
    1760:	00000000 	andeq	r0, r0, r0
    1764:	0da80600 	stceq	6, cr0, [r8]
    1768:	d10c0000 	mrsle	r0, (UNDEF: 12)
    176c:	cd000000 	stcgt	0, cr0, [r0, #-0]
    1770:	0d00000d 	stceq	0, cr0, [r0, #-52]	; 0xffffffcc
    1774:	000000ca 	andeq	r0, r0, sl, asr #1
    1778:	bd06000c 	stclt	0, cr0, [r6, #-48]	; 0xffffffd0
    177c:	0c00000d 	stceq	0, cr0, [r0], {13}
    1780:	000000d1 	ldrdeq	r0, [r0], -r1
    1784:	00000de2 	andeq	r0, r0, r2, ror #27
    1788:	0000ca0d 	andeq	ip, r0, sp, lsl #20
    178c:	06000500 	streq	r0, [r0], -r0, lsl #10
    1790:	00000dd2 	ldrdeq	r0, [r0], -r2
    1794:	0000d10c 	andeq	sp, r0, ip, lsl #2
    1798:	000df700 	andeq	pc, sp, r0, lsl #14
    179c:	00ca0d00 	sbceq	r0, sl, r0, lsl #26
    17a0:	00080000 	andeq	r0, r8, r0
    17a4:	000de706 	andeq	lr, sp, r6, lsl #14
    17a8:	00d10c00 	sbcseq	r0, r1, r0, lsl #24
    17ac:	0e0c0000 	cdpeq	0, 0, cr0, cr12, cr0, {0}
    17b0:	ca0d0000 	bgt	3417b8 <_start-0xbfcc6848>
    17b4:	09000000 	stmdbeq	r0, {}	; <UNPREDICTABLE>
    17b8:	0dfc0600 	ldcleq	6, cr0, [ip]
    17bc:	d10c0000 	mrsle	r0, (UNDEF: 12)
    17c0:	21000000 	mrscs	r0, (UNDEF: 0)
    17c4:	0d00000e 	stceq	0, cr0, [r0, #-56]	; 0xffffffc8
    17c8:	000000ca 	andeq	r0, r0, sl, asr #1
    17cc:	1106000d 	tstne	r6, sp
    17d0:	0c00000e 	stceq	0, cr0, [r0], {14}
    17d4:	000000d1 	ldrdeq	r0, [r0], -r1
    17d8:	00000e36 	andeq	r0, r0, r6, lsr lr
    17dc:	0000ca0d 	andeq	ip, r0, sp, lsl #20
    17e0:	06001500 	streq	r1, [r0], -r0, lsl #10
    17e4:	00000e26 	andeq	r0, r0, r6, lsr #28
    17e8:	0000d10c 	andeq	sp, r0, ip, lsl #2
    17ec:	000e4b00 	andeq	r4, lr, r0, lsl #22
    17f0:	00ca0d00 	sbceq	r0, sl, r0, lsl #26
    17f4:	00170000 	andseq	r0, r7, r0
    17f8:	000e3b06 	andeq	r3, lr, r6, lsl #22
    17fc:	00d10c00 	sbcseq	r0, r1, r0, lsl #24
    1800:	0e600000 	cdpeq	0, 6, cr0, cr0, cr0, {0}
    1804:	ca0d0000 	bgt	34180c <_start-0xbfcc67f4>
    1808:	f6000000 			; <UNDEFINED> instruction: 0xf6000000
    180c:	0e500600 	cdpeq	6, 5, cr0, cr0, cr0, {0}
    1810:	d10c0000 	mrsle	r0, (UNDEF: 12)
    1814:	75000000 	strvc	r0, [r0, #-0]
    1818:	0d00000e 	stceq	0, cr0, [r0, #-56]	; 0xffffffc8
    181c:	000000ca 	andeq	r0, r0, sl, asr #1
    1820:	65060003 	strvs	r0, [r6, #-3]
    1824:	0c00000e 	stceq	0, cr0, [r0], {14}
    1828:	000000d1 	ldrdeq	r0, [r0], -r1
    182c:	00000e8a 	andeq	r0, r0, sl, lsl #29
    1830:	0000ca0d 	andeq	ip, r0, sp, lsl #20
    1834:	06000f00 	streq	r0, [r0], -r0, lsl #30
    1838:	00000e7a 	andeq	r0, r0, sl, ror lr
    183c:	0000d10c 	andeq	sp, r0, ip, lsl #2
    1840:	000e9f00 	andeq	r9, lr, r0, lsl #30
    1844:	00ca0d00 	sbceq	r0, sl, r0, lsl #26
    1848:	00110000 	andseq	r0, r1, r0
    184c:	000e8f06 	andeq	r8, lr, r6, lsl #30
    1850:	00d10c00 	sbcseq	r0, r1, r0, lsl #24
    1854:	0eb40000 	cdpeq	0, 11, cr0, cr4, cr0, {0}
    1858:	ca0d0000 	bgt	341860 <_start-0xbfcc67a0>
    185c:	13000000 	movwne	r0, #0
    1860:	0ea40600 	cdpeq	6, 10, cr0, cr4, cr0, {0}
    1864:	d10c0000 	mrsle	r0, (UNDEF: 12)
    1868:	c9000000 	stmdbgt	r0, {}	; <UNPREDICTABLE>
    186c:	0d00000e 	stceq	0, cr0, [r0, #-56]	; 0xffffffc8
    1870:	000000ca 	andeq	r0, r0, sl, asr #1
    1874:	b90600f5 	stmdblt	r6, {r0, r2, r4, r5, r6, r7}
    1878:	0e00000e 	cdpeq	0, 0, cr0, cr0, cr14, {0}
    187c:	00000642 	andeq	r0, r0, r2, asr #12
    1880:	e1010103 	tst	r1, r3, lsl #2
    1884:	0f000000 	svceq	0x00000000
    1888:	00000304 	andeq	r0, r0, r4, lsl #6
    188c:	9b9c4801 	blls	fe713898 <__bss_end__+0x3e709294>
    1890:	00ecc000 	rsceq	ip, ip, r0
    1894:	9c010000 	stcls	0, cr0, [r1], {-0}
    1898:	00000f0a 	andeq	r0, r0, sl, lsl #30
    189c:	74616410 	strbtvc	r6, [r1], #-1040	; 0xfffffbf0
    18a0:	0a480100 	beq	1201ca8 <_start-0xbee06358>
    18a4:	0200000f 	andeq	r0, r0, #15
    18a8:	69117091 	ldmdbvs	r1, {r0, r4, r7, ip, sp, lr}
    18ac:	0a4a0100 	beq	1281cb4 <_start-0xbed8634c>
    18b0:	0200000f 	andeq	r0, r0, #15
    18b4:	05007791 	streq	r7, [r0, #-1937]	; 0xfffff86f
    18b8:	00e30801 	rsceq	r0, r3, r1, lsl #16
    18bc:	33120000 	tstcc	r2, #0
    18c0:	0100000e 	tsteq	r0, lr
    18c4:	0099401d 	addseq	r4, r9, sp, lsl r0
    18c8:	00025cc0 	andeq	r5, r2, r0, asr #25
    18cc:	139c0100 	orrsne	r0, ip, #0, 2
    18d0:	0000080b 	andeq	r0, r0, fp, lsl #16
    18d4:	98d41501 	ldmls	r4, {r0, r8, sl, ip}^
    18d8:	006cc000 	rsbeq	ip, ip, r0
    18dc:	9c010000 	stcls	0, cr0, [r1], {-0}
    18e0:	00000f5d 	andeq	r0, r0, sp, asr pc
    18e4:	00737510 	rsbseq	r7, r3, r0, lsl r5
    18e8:	00ca1501 	sbceq	r1, sl, r1, lsl #10
    18ec:	91020000 	mrsls	r0, (UNDEF: 2)
    18f0:	00691170 	rsbeq	r1, r9, r0, ror r1
    18f4:	0f5d1701 	svceq	0x005d1701
    18f8:	91020000 	mrsls	r0, (UNDEF: 2)
    18fc:	006a1178 	rsbeq	r1, sl, r8, ror r1
    1900:	0f5d1701 	svceq	0x005d1701
    1904:	91020000 	mrsls	r0, (UNDEF: 2)
    1908:	04140074 	ldreq	r0, [r4], #-116	; 0xffffff8c
    190c:	746e6905 	strbtvc	r6, [lr], #-2309	; 0xfffff6fb
    1910:	00450000 	subeq	r0, r5, r0
    1914:	00040000 	andeq	r0, r4, r0
    1918:	00000520 	andeq	r0, r0, r0, lsr #10
    191c:	00570104 	subseq	r0, r7, r4, lsl #2
    1920:	590c0000 	stmdbpl	ip, {}	; <UNPREDICTABLE>
    1924:	8a00000e 	bhi	1964 <_start-0xc000669c>
    1928:	88000001 	stmdahi	r0, {r0}
    192c:	14c0009c 	strbne	r0, [r0], #156	; 0x9c
    1930:	44000000 	strmi	r0, [r0], #-0
    1934:	02000006 	andeq	r0, r0, #6
    1938:	00f60704 	rscseq	r0, r6, r4, lsl #14
    193c:	60030000 	andvs	r0, r3, r0
    1940:	0100000e 	tsteq	r0, lr
    1944:	00004105 	andeq	r4, r0, r5, lsl #2
    1948:	009c8800 	addseq	r8, ip, r0, lsl #16
    194c:	000014c0 	andeq	r1, r0, r0, asr #9
    1950:	049c0100 	ldreq	r0, [ip], #256	; 0x100
    1954:	6e690504 	cdpvs	5, 6, cr0, cr9, cr4, {0}
    1958:	地址 0x00001958 越界。


Disassembly of section .debug_abbrev:

00000000 <.debug_abbrev>:
   0:	10001101 	andne	r1, r0, r1, lsl #2
   4:	12011106 	andne	r1, r1, #-2147483647	; 0x80000001
   8:	1b080301 	blne	200c14 <_start-0xbfe073ec>
   c:	13082508 	movwne	r2, #34056	; 0x8508
  10:	00000005 	andeq	r0, r0, r5
  14:	10001101 	andne	r1, r0, r1, lsl #2
  18:	12011106 	andne	r1, r1, #-2147483647	; 0x80000001
  1c:	1b080301 	blne	200c28 <_start-0xbfe073d8>
  20:	13082508 	movwne	r2, #34056	; 0x8508
  24:	00000005 	andeq	r0, r0, r5
  28:	10001101 	andne	r1, r0, r1, lsl #2
  2c:	12011106 	andne	r1, r1, #-2147483647	; 0x80000001
  30:	1b080301 	blne	200c3c <_start-0xbfe073c4>
  34:	13082508 	movwne	r2, #34056	; 0x8508
  38:	00000005 	andeq	r0, r0, r5
  3c:	25011101 	strcs	r1, [r1, #-257]	; 0xfffffeff
  40:	030b130e 	movweq	r1, #45838	; 0xb30e
  44:	110e1b0e 	tstne	lr, lr, lsl #22
  48:	10061201 	andne	r1, r6, r1, lsl #4
  4c:	02000017 	andeq	r0, r0, #23
  50:	0e030016 	mcreq	0, 0, r0, cr3, cr6, {0}
  54:	0b3b0b3a 	bleq	ec2d44 <_start-0xbf1452bc>
  58:	00001349 	andeq	r1, r0, r9, asr #6
  5c:	0b000f03 	bleq	3c70 <_start-0xc0004390>
  60:	000e030b 	andeq	r0, lr, fp, lsl #6
  64:	01010400 	tsteq	r1, r0, lsl #8
  68:	13011349 	movwne	r1, #4937	; 0x1349
  6c:	21050000 	mrscs	r0, (UNDEF: 5)
  70:	2f134900 	svccs	0x00134900
  74:	0600000b 	streq	r0, [r0], -fp
  78:	0b0b0024 	bleq	2c0110 <_start-0xbfd47ef0>
  7c:	0e030b3e 	vmoveq.16	d3[0], r0
  80:	34070000 	strcc	r0, [r7], #-0
  84:	3a0e0300 	bcc	380c8c <_start-0xbfc87374>
  88:	490b3b0b 	stmdbmi	fp, {r0, r1, r3, r8, r9, fp, ip, sp}
  8c:	02193f13 	andseq	r3, r9, #19, 30	; 0x4c
  90:	08000018 	stmdaeq	r0, {r3, r4}
  94:	193f012e 	ldmdbne	pc!, {r1, r2, r3, r5, r8}	; <UNPREDICTABLE>
  98:	0b3a0e03 	bleq	e838ac <_start-0xbf184754>
  9c:	1927053b 	stmdbne	r7!, {r0, r1, r3, r4, r5, r8, sl}
  a0:	06120111 			; <UNDEFINED> instruction: 0x06120111
  a4:	42961840 	addsmi	r1, r6, #64, 16	; 0x400000
  a8:	00130119 	andseq	r0, r3, r9, lsl r1
  ac:	00050900 	andeq	r0, r5, r0, lsl #18
  b0:	0b3a0803 	bleq	e820c4 <_start-0xbf185f3c>
  b4:	1349053b 	movtne	r0, #38203	; 0x953b
  b8:	00001802 	andeq	r1, r0, r2, lsl #16
  bc:	0000180a 	andeq	r1, r0, sl, lsl #16
  c0:	00340b00 	eorseq	r0, r4, r0, lsl #22
  c4:	0b3a0e03 	bleq	e838d8 <_start-0xbf184728>
  c8:	1349053b 	movtne	r0, #38203	; 0x953b
  cc:	00001802 	andeq	r1, r0, r2, lsl #16
  d0:	0b000f0c 	bleq	3d08 <_start-0xc00042f8>
  d4:	0013490b 	andseq	r4, r3, fp, lsl #18
  d8:	00260d00 	eoreq	r0, r6, r0, lsl #26
  dc:	00001349 	andeq	r1, r0, r9, asr #6
  e0:	3f012e0e 	svccc	0x00012e0e
  e4:	3a0e0319 	bcc	380d50 <_start-0xbfc872b0>
  e8:	27053b0b 	strcs	r3, [r5, -fp, lsl #22]
  ec:	11134919 	tstne	r3, r9, lsl r9
  f0:	40061201 	andmi	r1, r6, r1, lsl #4
  f4:	19429618 	stmdbne	r2, {r3, r4, r9, sl, ip, pc}^
  f8:	00001301 	andeq	r1, r0, r1, lsl #6
  fc:	0300340f 	movweq	r3, #1039	; 0x40f
 100:	3b0b3a08 	blcc	2ce928 <_start-0xbfd396d8>
 104:	02134905 	andseq	r4, r3, #81920	; 0x14000
 108:	10000018 	andne	r0, r0, r8, lsl r0
 10c:	0b0b0024 	bleq	2c01a4 <_start-0xbfd47e5c>
 110:	08030b3e 	stmdaeq	r3, {r1, r2, r3, r4, r5, r8, r9, fp}
 114:	2e110000 	cdpcs	0, 1, cr0, cr1, cr0, {0}
 118:	03193f01 	tsteq	r9, #1, 30
 11c:	3b0b3a0e 	blcc	2ce95c <_start-0xbfd396a4>
 120:	4919270b 	ldmdbmi	r9, {r0, r1, r3, r8, r9, sl, sp}
 124:	12011113 	andne	r1, r1, #-1073741820	; 0xc0000004
 128:	96184006 	ldrls	r4, [r8], -r6
 12c:	13011942 	movwne	r1, #6466	; 0x1942
 130:	05120000 	ldreq	r0, [r2, #-0]
 134:	3a080300 	bcc	200d3c <_start-0xbfe072c4>
 138:	490b3b0b 	stmdbmi	fp, {r0, r1, r3, r8, r9, fp, ip, sp}
 13c:	00180213 	andseq	r0, r8, r3, lsl r2
 140:	00051300 	andeq	r1, r5, r0, lsl #6
 144:	0b3a0e03 	bleq	e83958 <_start-0xbf1846a8>
 148:	13490b3b 	movtne	r0, #39739	; 0x9b3b
 14c:	00001802 	andeq	r1, r0, r2, lsl #16
 150:	03003414 	movweq	r3, #1044	; 0x414
 154:	3b0b3a08 	blcc	2ce97c <_start-0xbfd39684>
 158:	0213490b 	andseq	r4, r3, #180224	; 0x2c000
 15c:	15000018 	strne	r0, [r0, #-24]	; 0xffffffe8
 160:	0e030034 	mcreq	0, 0, r0, cr3, cr4, {1}
 164:	0b3b0b3a 	bleq	ec2e54 <_start-0xbf1451ac>
 168:	18021349 	stmdane	r2, {r0, r3, r6, r8, r9, ip}
 16c:	0a160000 	beq	580174 <_start-0xbfa87e8c>
 170:	3a0e0300 	bcc	380d78 <_start-0xbfc87288>
 174:	110b3b0b 	tstne	fp, fp, lsl #22
 178:	17000001 	strne	r0, [r0, -r1]
 17c:	0111010b 	tsteq	r1, fp, lsl #2
 180:	13010612 	movwne	r0, #5650	; 0x1612
 184:	0b180000 	bleq	60018c <_start-0xbfa07e74>
 188:	12011101 	andne	r1, r1, #1073741824	; 0x40000000
 18c:	19000006 	stmdbne	r0, {r1, r2}
 190:	193f012e 	ldmdbne	pc!, {r1, r2, r3, r5, r8}	; <UNPREDICTABLE>
 194:	0b3a0e03 	bleq	e839a8 <_start-0xbf184658>
 198:	19270b3b 	stmdbne	r7!, {r0, r1, r3, r4, r5, r8, r9, fp}
 19c:	01111349 	tsteq	r1, r9, asr #6
 1a0:	18400612 	stmdane	r0, {r1, r4, r9, sl}^
 1a4:	01194297 			; <UNDEFINED> instruction: 0x01194297
 1a8:	1a000013 	bne	1fc <_start-0xc0007e04>
 1ac:	0e03012e 	adfeqsp	f0, f3, #0.5
 1b0:	0b3b0b3a 	bleq	ec2ea0 <_start-0xbf145160>
 1b4:	13491927 	movtne	r1, #39207	; 0x9927
 1b8:	06120111 			; <UNDEFINED> instruction: 0x06120111
 1bc:	42961840 	addsmi	r1, r6, #64, 16	; 0x400000
 1c0:	00130119 	andseq	r0, r3, r9, lsl r1
 1c4:	012e1b00 			; <UNDEFINED> instruction: 0x012e1b00
 1c8:	0b3a0e03 	bleq	e839dc <_start-0xbf184624>
 1cc:	19270b3b 	stmdbne	r7!, {r0, r1, r3, r4, r5, r8, r9, fp}
 1d0:	01111349 	tsteq	r1, r9, asr #6
 1d4:	18400612 	stmdane	r0, {r1, r4, r9, sl}^
 1d8:	01194297 			; <UNDEFINED> instruction: 0x01194297
 1dc:	1c000013 	stcne	0, cr0, [r0], {19}
 1e0:	0e03012e 	adfeqsp	f0, f3, #0.5
 1e4:	0b3b0b3a 	bleq	ec2ed4 <_start-0xbf14512c>
 1e8:	13491927 	movtne	r1, #39207	; 0x9927
 1ec:	06120111 			; <UNDEFINED> instruction: 0x06120111
 1f0:	42971840 	addsmi	r1, r7, #64, 16	; 0x400000
 1f4:	00000019 	andeq	r0, r0, r9, lsl r0
 1f8:	25011101 	strcs	r1, [r1, #-257]	; 0xfffffeff
 1fc:	030b130e 	movweq	r1, #45838	; 0xb30e
 200:	110e1b0e 	tstne	lr, lr, lsl #22
 204:	10061201 	andne	r1, r6, r1, lsl #4
 208:	02000017 	andeq	r0, r0, #23
 20c:	0b0b0113 	bleq	2c0660 <_start-0xbfd479a0>
 210:	0b3b0b3a 	bleq	ec2f00 <_start-0xbf145100>
 214:	00001301 	andeq	r1, r0, r1, lsl #6
 218:	03000d03 	movweq	r0, #3331	; 0xd03
 21c:	3b0b3a0e 	blcc	2cea5c <_start-0xbfd395a4>
 220:	3813490b 	ldmdacc	r3, {r0, r1, r3, r8, fp, lr}
 224:	0400000b 	streq	r0, [r0], #-11
 228:	0803000d 	stmdaeq	r3, {r0, r2, r3}
 22c:	0b3b0b3a 	bleq	ec2f1c <_start-0xbf1450e4>
 230:	0b381349 	bleq	e04f5c <_start-0xbf2030a4>
 234:	24050000 	strcs	r0, [r5], #-0
 238:	3e0b0b00 	vmlacc.f64	d0, d11, d0
 23c:	000e030b 	andeq	r0, lr, fp, lsl #6
 240:	00350600 	eorseq	r0, r5, r0, lsl #12
 244:	00001349 	andeq	r1, r0, r9, asr #6
 248:	03001607 	movweq	r1, #1543	; 0x607
 24c:	3b0b3a0e 	blcc	2cea8c <_start-0xbfd39574>
 250:	0013490b 	andseq	r4, r3, fp, lsl #18
 254:	012e0800 			; <UNDEFINED> instruction: 0x012e0800
 258:	0e03193f 			; <UNDEFINED> instruction: 0x0e03193f
 25c:	0b3b0b3a 	bleq	ec2f4c <_start-0xbf1450b4>
 260:	13491927 	movtne	r1, #39207	; 0x9927
 264:	06120111 			; <UNDEFINED> instruction: 0x06120111
 268:	42971840 	addsmi	r1, r7, #64, 16	; 0x400000
 26c:	00130119 	andseq	r0, r3, r9, lsl r1
 270:	00340900 	eorseq	r0, r4, r0, lsl #18
 274:	0b3a0803 	bleq	e82288 <_start-0xbf185d78>
 278:	13490b3b 	movtne	r0, #39739	; 0x9b3b
 27c:	00001802 	andeq	r1, r0, r2, lsl #16
 280:	4900260a 	stmdbmi	r0, {r1, r3, r9, sl, sp}
 284:	0b000013 	bleq	2d8 <_start-0xc0007d28>
 288:	193f012e 	ldmdbne	pc!, {r1, r2, r3, r5, r8}	; <UNPREDICTABLE>
 28c:	0b3a0e03 	bleq	e83aa0 <_start-0xbf184560>
 290:	19270b3b 	stmdbne	r7!, {r0, r1, r3, r4, r5, r8, r9, fp}
 294:	06120111 			; <UNDEFINED> instruction: 0x06120111
 298:	42961840 	addsmi	r1, r6, #64, 16	; 0x400000
 29c:	00130119 	andseq	r0, r3, r9, lsl r1
 2a0:	00050c00 	andeq	r0, r5, r0, lsl #24
 2a4:	0b3a0e03 	bleq	e83ab8 <_start-0xbf184548>
 2a8:	13490b3b 	movtne	r0, #39739	; 0x9b3b
 2ac:	00001802 	andeq	r1, r0, r2, lsl #16
 2b0:	0b000f0d 	bleq	3eec <_start-0xc0004114>
 2b4:	0013490b 	andseq	r4, r3, fp, lsl #18
 2b8:	002e0e00 	eoreq	r0, lr, r0, lsl #28
 2bc:	0e03193f 			; <UNDEFINED> instruction: 0x0e03193f
 2c0:	0b3b0b3a 	bleq	ec2fb0 <_start-0xbf145050>
 2c4:	06120111 			; <UNDEFINED> instruction: 0x06120111
 2c8:	42971840 	addsmi	r1, r7, #64, 16	; 0x400000
 2cc:	00000019 	andeq	r0, r0, r9, lsl r0
 2d0:	25011101 	strcs	r1, [r1, #-257]	; 0xfffffeff
 2d4:	030b130e 	movweq	r1, #45838	; 0xb30e
 2d8:	110e1b0e 	tstne	lr, lr, lsl #22
 2dc:	10061201 	andne	r1, r6, r1, lsl #4
 2e0:	02000017 	andeq	r0, r0, #23
 2e4:	0b0b0113 	bleq	2c0738 <_start-0xbfd478c8>
 2e8:	0b3b0b3a 	bleq	ec2fd8 <_start-0xbf145028>
 2ec:	00001301 	andeq	r1, r0, r1, lsl #6
 2f0:	03000d03 	movweq	r0, #3331	; 0xd03
 2f4:	3b0b3a0e 	blcc	2ceb34 <_start-0xbfd394cc>
 2f8:	3813490b 	ldmdacc	r3, {r0, r1, r3, r8, fp, lr}
 2fc:	0400000b 	streq	r0, [r0], #-11
 300:	0803000d 	stmdaeq	r3, {r0, r2, r3}
 304:	0b3b0b3a 	bleq	ec2ff4 <_start-0xbf14500c>
 308:	0b381349 	bleq	e05034 <_start-0xbf202fcc>
 30c:	24050000 	strcs	r0, [r5], #-0
 310:	3e0b0b00 	vmlacc.f64	d0, d11, d0
 314:	000e030b 	andeq	r0, lr, fp, lsl #6
 318:	00350600 	eorseq	r0, r5, r0, lsl #12
 31c:	00001349 	andeq	r1, r0, r9, asr #6
 320:	03001607 	movweq	r1, #1543	; 0x607
 324:	3b0b3a0e 	blcc	2ceb64 <_start-0xbfd3949c>
 328:	0013490b 	andseq	r4, r3, fp, lsl #18
 32c:	01010800 	tsteq	r1, r0, lsl #16
 330:	13011349 	movwne	r1, #4937	; 0x1349
 334:	21090000 	mrscs	r0, (UNDEF: 9)
 338:	2f134900 	svccs	0x00134900
 33c:	0a00000b 	beq	370 <_start-0xc0007c90>
 340:	0e030034 	mcreq	0, 0, r0, cr3, cr4, {1}
 344:	0b3b0b3a 	bleq	ec3034 <_start-0xbf144fcc>
 348:	193f1349 	ldmdbne	pc!, {r0, r3, r6, r8, r9, ip}	; <UNPREDICTABLE>
 34c:	00001802 	andeq	r1, r0, r2, lsl #16
 350:	3f012e0b 	svccc	0x00012e0b
 354:	3a0e0319 	bcc	380fc0 <_start-0xbfc87040>
 358:	110b3b0b 	tstne	fp, fp, lsl #22
 35c:	40061201 	andmi	r1, r6, r1, lsl #4
 360:	19429618 	stmdbne	r2, {r3, r4, r9, sl, ip, pc}^
 364:	00001301 	andeq	r1, r0, r1, lsl #6
 368:	0300340c 	movweq	r3, #1036	; 0x40c
 36c:	3b0b3a08 	blcc	2ceb94 <_start-0xbfd3946c>
 370:	0213490b 	andseq	r4, r3, #180224	; 0x2c000
 374:	0d000018 	stceq	0, cr0, [r0, #-96]	; 0xffffffa0
 378:	193f012e 	ldmdbne	pc!, {r1, r2, r3, r5, r8}	; <UNPREDICTABLE>
 37c:	0b3a0e03 	bleq	e83b90 <_start-0xbf184470>
 380:	19270b3b 	stmdbne	r7!, {r0, r1, r3, r4, r5, r8, r9, fp}
 384:	06120111 			; <UNDEFINED> instruction: 0x06120111
 388:	42971840 	addsmi	r1, r7, #64, 16	; 0x400000
 38c:	00130119 	andseq	r0, r3, r9, lsl r1
 390:	00050e00 	andeq	r0, r5, r0, lsl #28
 394:	0b3a0803 	bleq	e823a8 <_start-0xbf185c58>
 398:	13490b3b 	movtne	r0, #39739	; 0x9b3b
 39c:	00001802 	andeq	r1, r0, r2, lsl #16
 3a0:	0b00240f 	bleq	93e4 <_start-0xbfffec1c>
 3a4:	030b3e0b 	movweq	r3, #48651	; 0xbe0b
 3a8:	00000008 	andeq	r0, r0, r8
 3ac:	25011101 	strcs	r1, [r1, #-257]	; 0xfffffeff
 3b0:	030b130e 	movweq	r1, #45838	; 0xb30e
 3b4:	110e1b0e 	tstne	lr, lr, lsl #22
 3b8:	10061201 	andne	r1, r6, r1, lsl #4
 3bc:	02000017 	andeq	r0, r0, #23
 3c0:	08030034 	stmdaeq	r3, {r2, r4, r5}
 3c4:	0b3b0b3a 	bleq	ec30b4 <_start-0xbf144f4c>
 3c8:	193f1349 	ldmdbne	pc!, {r0, r3, r6, r8, r9, ip}	; <UNPREDICTABLE>
 3cc:	00001802 	andeq	r1, r0, r2, lsl #16
 3d0:	0b002403 	bleq	93e4 <_start-0xbfffec1c>
 3d4:	030b3e0b 	movweq	r3, #48651	; 0xbe0b
 3d8:	0400000e 	streq	r0, [r0], #-14
 3dc:	193f002e 	ldmdbne	pc!, {r1, r2, r3, r5}	; <UNPREDICTABLE>
 3e0:	0b3a0e03 	bleq	e83bf4 <_start-0xbf18440c>
 3e4:	19270b3b 	stmdbne	r7!, {r0, r1, r3, r4, r5, r8, r9, fp}
 3e8:	06120111 			; <UNDEFINED> instruction: 0x06120111
 3ec:	42971840 	addsmi	r1, r7, #64, 16	; 0x400000
 3f0:	00000019 	andeq	r0, r0, r9, lsl r0
 3f4:	25011101 	strcs	r1, [r1, #-257]	; 0xfffffeff
 3f8:	030b130e 	movweq	r1, #45838	; 0xb30e
 3fc:	110e1b0e 	tstne	lr, lr, lsl #22
 400:	10061201 	andne	r1, r6, r1, lsl #4
 404:	02000017 	andeq	r0, r0, #23
 408:	0b0b0113 	bleq	2c085c <_start-0xbfd477a4>
 40c:	0b3b0b3a 	bleq	ec30fc <_start-0xbf144f04>
 410:	00001301 	andeq	r1, r0, r1, lsl #6
 414:	03000d03 	movweq	r0, #3331	; 0xd03
 418:	3b0b3a0e 	blcc	2cec58 <_start-0xbfd393a8>
 41c:	3813490b 	ldmdacc	r3, {r0, r1, r3, r8, fp, lr}
 420:	0400000b 	streq	r0, [r0], #-11
 424:	0803000d 	stmdaeq	r3, {r0, r2, r3}
 428:	0b3b0b3a 	bleq	ec3118 <_start-0xbf144ee8>
 42c:	0b381349 	bleq	e05158 <_start-0xbf202ea8>
 430:	24050000 	strcs	r0, [r5], #-0
 434:	3e0b0b00 	vmlacc.f64	d0, d11, d0
 438:	000e030b 	andeq	r0, lr, fp, lsl #6
 43c:	00350600 	eorseq	r0, r5, r0, lsl #12
 440:	00001349 	andeq	r1, r0, r9, asr #6
 444:	03001607 	movweq	r1, #1543	; 0x607
 448:	3b0b3a0e 	blcc	2cec88 <_start-0xbfd39378>
 44c:	0013490b 	andseq	r4, r3, fp, lsl #18
 450:	01130800 	tsteq	r3, r0, lsl #16
 454:	0b3a050b 	bleq	e81888 <_start-0xbf186778>
 458:	13010b3b 	movwne	r0, #6971	; 0x1b3b
 45c:	0d090000 	stceq	0, cr0, [r9, #-0]
 460:	3a0e0300 	bcc	381068 <_start-0xbfc86f98>
 464:	490b3b0b 	stmdbmi	fp, {r0, r1, r3, r8, r9, fp, ip, sp}
 468:	00053813 	andeq	r3, r5, r3, lsl r8
 46c:	000d0a00 	andeq	r0, sp, r0, lsl #20
 470:	0b3a0803 	bleq	e82484 <_start-0xbf185b7c>
 474:	13490b3b 	movtne	r0, #39739	; 0x9b3b
 478:	00000538 	andeq	r0, r0, r8, lsr r5
 47c:	03000d0b 	movweq	r0, #3339	; 0xd0b
 480:	3b0b3a0e 	blcc	2cecc0 <_start-0xbfd39340>
 484:	38134905 	ldmdacc	r3, {r0, r2, r8, fp, lr}
 488:	0c000005 	stceq	0, cr0, [r0], {5}
 48c:	13490101 	movtne	r0, #37121	; 0x9101
 490:	00001301 	andeq	r1, r0, r1, lsl #6
 494:	4900210d 	stmdbmi	r0, {r0, r2, r3, r8, sp}
 498:	000b2f13 	andeq	r2, fp, r3, lsl pc
 49c:	00160e00 	andseq	r0, r6, r0, lsl #28
 4a0:	0b3a0e03 	bleq	e83cb4 <_start-0xbf18434c>
 4a4:	1349053b 	movtne	r0, #38203	; 0x953b
 4a8:	2e0f0000 	cdpcs	0, 0, cr0, cr15, cr0, {0}
 4ac:	03193f01 	tsteq	r9, #1, 30
 4b0:	3b0b3a0e 	blcc	2cecf0 <_start-0xbfd39310>
 4b4:	1119270b 	tstne	r9, fp, lsl #14
 4b8:	40061201 	andmi	r1, r6, r1, lsl #4
 4bc:	19429618 	stmdbne	r2, {r3, r4, r9, sl, ip, pc}^
 4c0:	00001301 	andeq	r1, r0, r1, lsl #6
 4c4:	03000510 	movweq	r0, #1296	; 0x510
 4c8:	3b0b3a08 	blcc	2cecf0 <_start-0xbfd39310>
 4cc:	0213490b 	andseq	r4, r3, #180224	; 0x2c000
 4d0:	11000018 	tstne	r0, r8, lsl r0
 4d4:	08030034 	stmdaeq	r3, {r2, r4, r5}
 4d8:	0b3b0b3a 	bleq	ec31c8 <_start-0xbf144e38>
 4dc:	18021349 	stmdane	r2, {r0, r3, r6, r8, r9, ip}
 4e0:	2e120000 	cdpcs	0, 1, cr0, cr2, cr0, {0}
 4e4:	03193f00 	tsteq	r9, #0, 30
 4e8:	3b0b3a0e 	blcc	2ced28 <_start-0xbfd392d8>
 4ec:	1119270b 	tstne	r9, fp, lsl #14
 4f0:	40061201 	andmi	r1, r6, r1, lsl #4
 4f4:	19429718 	stmdbne	r2, {r3, r4, r8, r9, sl, ip, pc}^
 4f8:	2e130000 	cdpcs	0, 1, cr0, cr3, cr0, {0}
 4fc:	03193f01 	tsteq	r9, #1, 30
 500:	3b0b3a0e 	blcc	2ced40 <_start-0xbfd392c0>
 504:	1119270b 	tstne	r9, fp, lsl #14
 508:	40061201 	andmi	r1, r6, r1, lsl #4
 50c:	19429718 	stmdbne	r2, {r3, r4, r8, r9, sl, ip, pc}^
 510:	00001301 	andeq	r1, r0, r1, lsl #6
 514:	0b002414 	bleq	956c <_start-0xbfffea94>
 518:	030b3e0b 	movweq	r3, #48651	; 0xbe0b
 51c:	00000008 	andeq	r0, r0, r8
 520:	25011101 	strcs	r1, [r1, #-257]	; 0xfffffeff
 524:	030b130e 	movweq	r1, #45838	; 0xb30e
 528:	110e1b0e 	tstne	lr, lr, lsl #22
 52c:	10061201 	andne	r1, r6, r1, lsl #4
 530:	02000017 	andeq	r0, r0, #23
 534:	0b0b0024 	bleq	2c05cc <_start-0xbfd47a34>
 538:	0e030b3e 	vmoveq.16	d3[0], r0
 53c:	2e030000 	cdpcs	0, 0, cr0, cr3, cr0, {0}
 540:	03193f00 	tsteq	r9, #0, 30
 544:	3b0b3a0e 	blcc	2ced84 <_start-0xbfd3927c>
 548:	1113490b 	tstne	r3, fp, lsl #18
 54c:	40061201 	andmi	r1, r6, r1, lsl #4
 550:	19429618 	stmdbne	r2, {r3, r4, r9, sl, ip, pc}^
 554:	24040000 	strcs	r0, [r4], #-0
 558:	3e0b0b00 	vmlacc.f64	d0, d11, d0
 55c:	0008030b 	andeq	r0, r8, fp, lsl #6
	...

Disassembly of section .debug_aranges:

00000000 <.debug_aranges>:
   0:	0000001c 	andeq	r0, r0, ip, lsl r0
   4:	00000002 	andeq	r0, r0, r2
   8:	00040000 	andeq	r0, r4, r0
   c:	00000000 	andeq	r0, r0, r0
  10:	c0008000 	andgt	r8, r0, r0
  14:	00000218 	andeq	r0, r0, r8, lsl r2
	...
  20:	0000001c 	andeq	r0, r0, ip, lsl r0
  24:	00620002 	rsbeq	r0, r2, r2
  28:	00040000 	andeq	r0, r4, r0
  2c:	00000000 	andeq	r0, r0, r0
  30:	c0008218 	andgt	r8, r0, r8, lsl r2
  34:	000000b0 	strheq	r0, [r0], -r0	; <UNPREDICTABLE>
	...
  40:	0000001c 	andeq	r0, r0, ip, lsl r0
  44:	00cc0002 	sbceq	r0, ip, r2
  48:	00040000 	andeq	r0, r4, r0
  4c:	00000000 	andeq	r0, r0, r0
  50:	c00082c8 	andgt	r8, r0, r8, asr #5
  54:	00000094 	muleq	r0, r4, r0
	...
  60:	0000001c 	andeq	r0, r0, ip, lsl r0
  64:	01360002 	teqeq	r6, r2
  68:	00040000 	andeq	r0, r4, r0
  6c:	00000000 	andeq	r0, r0, r0
  70:	c000835c 	andgt	r8, r0, ip, asr r3
  74:	000010b8 	strheq	r1, [r0], -r8
	...
  80:	0000001c 	andeq	r0, r0, ip, lsl r0
  84:	05b80002 	ldreq	r0, [r8, #2]!
  88:	00040000 	andeq	r0, r4, r0
  8c:	00000000 	andeq	r0, r0, r0
  90:	c0009414 	andgt	r9, r0, r4, lsl r4
  94:	000002dc 	ldrdeq	r0, [r0], -ip
	...
  a0:	0000001c 	andeq	r0, r0, ip, lsl r0
  a4:	07d00002 	ldrbeq	r0, [r0, r2]
  a8:	00040000 	andeq	r0, r4, r0
  ac:	00000000 	andeq	r0, r0, r0
  b0:	c00096f0 	strdgt	r9, [r0], -r0
  b4:	000001cc 	andeq	r0, r0, ip, asr #3
	...
  c0:	0000001c 	andeq	r0, r0, ip, lsl r0
  c4:	09600002 	stmdbeq	r0!, {r1}^
  c8:	00040000 	andeq	r0, r4, r0
  cc:	00000000 	andeq	r0, r0, r0
  d0:	c00098bc 			; <UNDEFINED> instruction: 0xc00098bc
  d4:	00000018 	andeq	r0, r0, r8, lsl r0
	...
  e0:	0000001c 	andeq	r0, r0, ip, lsl r0
  e4:	09ad0002 	stmibeq	sp!, {r1}
  e8:	00040000 	andeq	r0, r4, r0
  ec:	00000000 	andeq	r0, r0, r0
  f0:	c00098d4 	ldrdgt	r9, [r0], -r4
  f4:	000003b4 			; <UNDEFINED> instruction: 0x000003b4
	...
 100:	0000001c 	andeq	r0, r0, ip, lsl r0
 104:	19120002 	ldmdbne	r2, {r1}
 108:	00040000 	andeq	r0, r4, r0
 10c:	00000000 	andeq	r0, r0, r0
 110:	c0009c88 	andgt	r9, r0, r8, lsl #25
 114:	00000014 	andeq	r0, r0, r4, lsl r0
	...

Disassembly of section .debug_str:

00000000 <.debug_str>:
   0:	69676964 	stmdbvs	r7!, {r2, r5, r6, r8, fp, sp, lr}^
   4:	5f007374 	svcpl	0x00007374
   8:	6975625f 	ldmdbvs	r5!, {r0, r1, r2, r3, r4, r6, r9, sp, lr}^
   c:	6e69746c 	cdpvs	4, 6, cr7, cr9, cr12, {3}
  10:	5f61765f 	svcpl	0x0061765f
  14:	7473696c 	ldrbtvc	r6, [r3], #-2412	; 0xfffff694
  18:	696b7300 	stmdbvs	fp!, {r8, r9, ip, sp, lr}^
  1c:	74615f70 	strbtvc	r5, [r1], #-3952	; 0xfffff090
  20:	6100696f 	tstvs	r0, pc, ror #18
  24:	00736772 	rsbseq	r6, r3, r2, ror r7
  28:	756c6176 	strbvc	r6, [ip, #-374]!	; 0xfffffe8a
  2c:	6f630065 	svcvs	0x00630065
  30:	00746e75 	rsbseq	r6, r4, r5, ror lr
  34:	6f745f5f 	svcvs	0x00745f5f
  38:	65707075 	ldrbvs	r7, [r0, #-117]!	; 0xffffff8b
  3c:	5f5f0072 	svcpl	0x005f0072
  40:	63756e67 	cmnvs	r5, #1648	; 0x670
  44:	5f61765f 	svcpl	0x0061765f
  48:	7473696c 	ldrbtvc	r6, [r3], #-2412	; 0xfffff694
  4c:	65727000 	ldrbvs	r7, [r2, #-0]!
  50:	69736963 	ldmdbvs	r3!, {r0, r1, r5, r6, r8, fp, sp, lr}^
  54:	47006e6f 	strmi	r6, [r0, -pc, ror #28]
  58:	4320554e 			; <UNDEFINED> instruction: 0x4320554e
  5c:	37203131 			; <UNDEFINED> instruction: 0x37203131
  60:	302e352e 	eorcc	r3, lr, lr, lsr #10
  64:	616d2d20 	cmnvs	sp, r0, lsr #26
  68:	2d206d72 	stccs	13, cr6, [r0, #-456]!	; 0xfffffe38
  6c:	6962616d 	stmdbvs	r2!, {r0, r2, r3, r5, r6, r8, sp, lr}^
  70:	6370613d 	cmnvs	r0, #1073741839	; 0x4000000f
  74:	6e672d73 	mcrvs	13, 3, r2, cr7, cr3, {3}
  78:	6d2d2075 	stcvs	0, cr2, [sp, #-468]!	; 0xfffffe2c
  7c:	3d757066 	ldclcc	0, cr7, [r5, #-408]!	; 0xfffffe68
  80:	6e6f656e 	cdpvs	5, 6, cr6, cr15, cr14, {3}
  84:	666d2d20 	strbtvs	r2, [sp], -r0, lsr #26
  88:	74616f6c 	strbtvc	r6, [r1], #-3948	; 0xfffff094
  8c:	6962612d 	stmdbvs	r2!, {r0, r2, r3, r5, r8, sp, lr}^
  90:	666f733d 			; <UNDEFINED> instruction: 0x666f733d
  94:	20706674 	rsbscs	r6, r0, r4, ror r6
  98:	72616d2d 	rsbvc	r6, r1, #2880	; 0xb40
  9c:	613d6863 	teqvs	sp, r3, ror #16
  a0:	37766d72 			; <UNDEFINED> instruction: 0x37766d72
  a4:	2d20612d 	stfcss	f6, [r0, #-180]!	; 0xffffff4c
  a8:	6e75746d 	cdpvs	4, 7, cr7, cr5, cr13, {3}
  ac:	6f633d65 	svcvs	0x00633d65
  b0:	78657472 	stmdavc	r5!, {r1, r4, r5, r6, sl, ip, sp, lr}^
  b4:	2039612d 	eorscs	r6, r9, sp, lsr #2
  b8:	6c746d2d 	ldclvs	13, cr6, [r4], #-180	; 0xffffff4c
  bc:	69642d73 	stmdbvs	r4!, {r0, r1, r4, r5, r6, r8, sl, fp, sp}^
  c0:	63656c61 	cmnvs	r5, #24832	; 0x6100
  c4:	6e673d74 	mcrvs	13, 3, r3, cr7, cr4, {3}
  c8:	672d2075 			; <UNDEFINED> instruction: 0x672d2075
  cc:	304f2d20 	subcc	r2, pc, r0, lsr #26
  d0:	6e662d20 	cdpvs	13, 6, cr2, cr6, cr0, {1}
  d4:	75622d6f 	strbvc	r2, [r2, #-3439]!	; 0xfffff291
  d8:	69746c69 	ldmdbvs	r4!, {r0, r3, r5, r6, sl, fp, sp, lr}^
  dc:	6162006e 	cmnvs	r2, lr, rrx
  e0:	75006573 	strvc	r6, [r0, #-1395]	; 0xfffffa8d
  e4:	6769736e 	strbvs	r7, [r9, -lr, ror #6]!
  e8:	2064656e 	rsbcs	r6, r4, lr, ror #10
  ec:	72616863 	rsbvc	r6, r1, #6488064	; 0x630000
  f0:	6e6f6c00 	cdpvs	12, 6, cr6, cr15, cr0, {0}
  f4:	6e752067 	cdpvs	0, 7, cr2, cr5, cr7, {3}
  f8:	6e676973 			; <UNDEFINED> instruction: 0x6e676973
  fc:	69206465 	stmdbvs	r0!, {r0, r2, r5, r6, sl, sp, lr}
 100:	6500746e 	strvs	r7, [r0, #-1134]	; 0xfffffb92
 104:	0070646e 	rsbseq	r6, r0, lr, ror #8
 108:	706d6973 	rsbvc	r6, sp, r3, ror r9
 10c:	735f656c 	cmpvc	pc, #108, 10	; 0x1b000000
 110:	6f747274 	svcvs	0x00747274
 114:	6f63006c 	svcvs	0x0063006c
 118:	6e6f6d6d 	cdpvs	13, 6, cr6, cr15, cr13, {3}
 11c:	6372732f 	cmnvs	r2, #-1140850688	; 0xbc000000
 120:	6972702f 	ldmdbvs	r2!, {r0, r1, r2, r3, r5, ip, sp, lr}^
 124:	2e66746e 	cdpcs	4, 6, cr7, cr6, cr14, {3}
 128:	6c660063 	stclvs	0, cr0, [r6], #-396	; 0xfffffe74
 12c:	00736761 	rsbseq	r6, r3, r1, ror #14
 130:	657a6973 	ldrbvs	r6, [sl, #-2419]!	; 0xfffff68d
 134:	61757100 	cmnvs	r5, r0, lsl #2
 138:	6966696c 	stmdbvs	r6!, {r2, r3, r5, r6, r8, fp, sp, lr}^
 13c:	73007265 	movwvc	r7, #613	; 0x265
 140:	6c706d69 	ldclvs	13, cr6, [r0], #-420	; 0xfffffe5c
 144:	74735f65 	ldrbtvc	r5, [r3], #-3941	; 0xfffff09b
 148:	756f7472 	strbvc	r7, [pc, #-1138]!	; fffffcde <__bss_end__+0x3fff56da>
 14c:	6572006c 	ldrbvs	r0, [r2, #-108]!	; 0xffffff94
 150:	746c7573 	strbtvc	r7, [ip], #-1395	; 0xfffffa8d
 154:	70657200 	rsbvc	r7, r5, r0, lsl #4
 158:	00746165 	rsbseq	r6, r4, r5, ror #2
 15c:	6e727473 	mrcvs	4, 3, r7, cr2, cr3, {3}
 160:	006e656c 	rsbeq	r6, lr, ip, ror #10
 164:	626d756e 	rsbvs	r7, sp, #461373440	; 0x1b800000
 168:	5f007265 	svcpl	0x00007265
 16c:	70797463 	rsbsvc	r7, r9, r3, ror #8
 170:	72700065 	rsbsvc	r0, r0, #101	; 0x65
 174:	62746e69 	rsbsvs	r6, r4, #1680	; 0x690
 178:	65666675 	strbvs	r6, [r6, #-1653]!	; 0xfffff98b
 17c:	69660072 	stmdbvs	r6!, {r1, r4, r5, r6}^
 180:	5f646c65 	svcpl	0x00646c65
 184:	74646977 	strbtvc	r6, [r4], #-2423	; 0xfffff689
 188:	682f0068 	stmdavs	pc!, {r3, r5, r6}	; <UNPREDICTABLE>
 18c:	2f656d6f 	svccs	0x00656d6f
 190:	6c656873 	stclvs	8, cr6, [r5], #-460	; 0xfffffe34
 194:	2f6e6f74 	svccs	0x006e6f74
 198:	6b736544 	blvs	1cd96b0 <_start-0xbe32e950>
 19c:	2f706f74 	svccs	0x00706f74
 1a0:	6a797168 	bvs	1e5c748 <_start-0xbe1ab8b8>
 1a4:	37304c2f 	ldrcc	r4, [r0, -pc, lsr #24]!
 1a8:	6d72615f 	ldfvse	f6, [r2, #-380]!	; 0xfffffe84
 1ac:	7961642f 	stmdbvc	r1!, {r0, r1, r2, r3, r5, sl, sp, lr}^
 1b0:	312d3630 			; <UNDEFINED> instruction: 0x312d3630
 1b4:	6f6c0033 	svcvs	0x006c0033
 1b8:	6920676e 	stmdbvs	r0!, {r1, r2, r3, r5, r6, r8, r9, sl, sp, lr}
 1bc:	7300746e 	movwvc	r7, #1134	; 0x46e
 1c0:	006e6769 	rsbeq	r6, lr, r9, ror #14
 1c4:	65725f5f 	ldrbvs	r5, [r2, #-3935]!	; 0xfffff0a1
 1c8:	73760073 	cmnvc	r6, #115	; 0x73
 1cc:	6e697270 	mcrvs	2, 3, r7, cr9, cr0, {3}
 1d0:	5f006674 	svcpl	0x00006674
 1d4:	7261755f 	rsbvc	r7, r1, #398458880	; 0x17c00000
 1d8:	75705f74 	ldrbvc	r5, [r0, #-3956]!	; 0xfffff08c
 1dc:	53006374 	movwpl	r6, #884	; 0x374
 1e0:	46434345 	strbmi	r4, [r3], -r5, asr #6
 1e4:	5f005247 	svcpl	0x00005247
 1e8:	7261755f 	rsbvc	r7, r1, #398458880	; 0x17c00000
 1ec:	75705f74 	ldrbvc	r5, [r0, #-3956]!	; 0xfffff08c
 1f0:	64007374 	strvs	r7, [r0], #-884	; 0xfffffc8c
 1f4:	00617461 	rsbeq	r7, r1, r1, ror #8
 1f8:	524f5452 	subpl	r5, pc, #1375731712	; 0x52000000
 1fc:	52534200 	subspl	r4, r3, #0, 4
 200:	55500052 	ldrbpl	r0, [r0, #-82]	; 0xffffffae
 204:	00524450 	subseq	r4, r2, r0, asr r4
 208:	45444f4d 	strbmi	r4, [r4, #-3917]	; 0xfffff0b3
 20c:	534f0052 	movtpl	r0, #61522	; 0xf052
 210:	44454550 	strbmi	r4, [r5], #-1360	; 0xfffffab0
 214:	54470052 	strbpl	r0, [r7], #-82	; 0xffffffae
 218:	50005250 	andpl	r5, r0, r0, asr r2
 21c:	43534552 	cmpmi	r3, #343932928	; 0x14800000
 220:	74737000 	ldrbtvc	r7, [r3], #-0
 224:	5f5f0072 	svcpl	0x005f0072
 228:	74726175 	ldrbtvc	r6, [r2], #-373	; 0xfffffe8b
 22c:	696e695f 	stmdbvs	lr!, {r0, r1, r2, r3, r4, r6, r8, fp, sp, lr}^
 230:	70670074 	rsbvc	r0, r7, r4, ror r0
 234:	745f6f69 	ldrbvc	r6, [pc], #-3945	; 23c <_start-0xc0007dc4>
 238:	4b434c00 	blmi	10d3240 <_start-0xbef34dc0>
 23c:	61750052 	cmnvs	r5, r2, asr r0
 240:	745f7472 	ldrbvc	r7, [pc], #-1138	; 248 <_start-0xc0007db8>
 244:	59544f00 	ldmdbpl	r4, {r8, r9, sl, fp, lr}^
 248:	00524550 	subseq	r4, r2, r0, asr r5
 24c:	4c524641 	mrrcmi	6, 4, r4, r2, cr1
 250:	755f5f00 	ldrbvc	r5, [pc, #-3840]	; fffff358 <__bss_end__+0x3fff4d54>
 254:	5f747261 	svcpl	0x00747261
 258:	63746567 	cmnvs	r4, #432013312	; 0x19c00000
 25c:	52464100 	subpl	r4, r6, #0, 2
 260:	6f630048 	svcvs	0x00630048
 264:	6e6f6d6d 	cdpvs	13, 6, cr6, cr15, cr13, {3}
 268:	6372732f 	cmnvs	r2, #-1140850688	; 0xbc000000
 26c:	7261752f 	rsbvc	r7, r1, #197132288	; 0xbc00000
 270:	00632e74 	rsbeq	r2, r3, r4, ror lr
 274:	736d756e 	cmnvc	sp, #461373440	; 0x1b800000
 278:	6c656400 	cfstrdvs	mvd6, [r5], #-0
 27c:	6d5f7961 	vldrvs.16	s15, [pc, #-194]	; 1c2 <_start-0xc0007e3e>	; <UNPREDICTABLE>
 280:	72730073 	rsbsvc	r0, r3, #115	; 0x73
 284:	696e2f63 	stmdbvs	lr!, {r0, r1, r5, r6, r8, r9, sl, fp, sp}^
 288:	5f656978 	svcpl	0x00656978
 28c:	6867696c 	stmdavs	r7!, {r2, r3, r5, r6, r8, fp, sp, lr}^
 290:	00632e74 	rsbeq	r2, r3, r4, ror lr
 294:	6d617865 	stclvs	8, cr7, [r1, #-404]!	; 0xfffffe6c
 298:	78650031 	stmdavc	r5!, {r0, r4, r5}^
 29c:	00326d61 	eorseq	r6, r2, r1, ror #26
 2a0:	695f6f64 	ldmdbvs	pc, {r2, r5, r6, r8, r9, sl, fp, sp, lr}^	; <UNPREDICTABLE>
 2a4:	73007172 	movwvc	r7, #370	; 0x172
 2a8:	642f6372 	strtvs	r6, [pc], #-882	; 2b0 <_start-0xc0007d50>
 2ac:	72695f6f 	rsbvc	r5, r9, #444	; 0x1bc
 2b0:	00632e71 	rsbeq	r2, r3, r1, ror lr
 2b4:	545f504d 	ldrbpl	r5, [pc], #-77	; 2bc <_start-0xc0007d44>
 2b8:	4248415a 	submi	r4, r8, #-2147483626	; 0x80000016
 2bc:	434e4536 	movtmi	r4, #58678	; 0xe536
 2c0:	0052524c 	subseq	r5, r2, ip, asr #4
 2c4:	415f504d 	cmpmi	pc, sp, asr #32
 2c8:	4c4d4958 	mcrrmi	9, 5, r4, sp, cr8	; <UNPREDICTABLE>
 2cc:	434e4550 	movtmi	r4, #58704	; 0xe550
 2d0:	0052524c 	subseq	r5, r2, ip, asr #4
 2d4:	415f504d 	cmpmi	pc, sp, asr #32
 2d8:	45324248 	ldrmi	r4, [r2, #-584]!	; 0xfffffdb8
 2dc:	524c434e 	subpl	r4, ip, #939524097	; 0x38000001
 2e0:	504d0052 	subpl	r0, sp, r2, asr r0
 2e4:	4248415f 	submi	r4, r8, #-1073741801	; 0xc0000017
 2e8:	534e4535 	movtpl	r4, #58677	; 0xe535
 2ec:	00525445 	subseq	r5, r2, r5, asr #8
 2f0:	415f504d 	cmpmi	pc, sp, asr #32
 2f4:	45334250 	ldrmi	r4, [r3, #-592]!	; 0xfffffdb0
 2f8:	524c434e 	subpl	r4, ip, #939524097	; 0x38000001
 2fc:	65720052 	ldrbvs	r0, [r2, #-82]!	; 0xffffffae
 300:	00383273 	eorseq	r3, r8, r3, ror r2
 304:	5f495053 	svcpl	0x00495053
 308:	74697277 	strbtvc	r7, [r9], #-631	; 0xfffffd89
 30c:	58410065 	stmdapl	r1, {r0, r2, r5, r6}^
 310:	56494449 	strbpl	r4, [r9], -r9, asr #8
 314:	65720052 	ldrbvs	r0, [r2, #-82]!	; 0xffffffae
 318:	00313173 	eorseq	r3, r1, r3, ror r1
 31c:	31736572 	cmncc	r3, r2, ror r5
 320:	65720032 	ldrbvs	r0, [r2, #-50]!	; 0xffffffce
 324:	00333173 	eorseq	r3, r3, r3, ror r1
 328:	31736572 	cmncc	r3, r2, ror r5
 32c:	65720034 	ldrbvs	r0, [r2, #-52]!	; 0xffffffcc
 330:	00353173 	eorseq	r3, r5, r3, ror r1
 334:	31736572 	cmncc	r3, r2, ror r5
 338:	65720036 	ldrbvs	r0, [r2, #-54]!	; 0xffffffca
 33c:	00373173 	eorseq	r3, r7, r3, ror r1
 340:	31736572 	cmncc	r3, r2, ror r5
 344:	504d0039 	subpl	r0, sp, r9, lsr r0
 348:	4f4f425f 	svcmi	0x004f425f
 34c:	00524354 	subseq	r4, r2, r4, asr r3
 350:	2f637273 	svccs	0x00637273
 354:	2e697073 	mcrcs	0, 3, r7, cr9, cr3, {3}
 358:	50410063 	subpl	r0, r1, r3, rrx
 35c:	49443442 	stmdbmi	r4, {r1, r6, sl, ip, sp}^
 360:	4d005256 	sfmmi	f5, 4, [r0, #-344]	; 0xfffffea8
 364:	50415f43 	subpl	r5, r1, r3, asr #30
 368:	504c3142 	subpl	r3, ip, r2, asr #2
 36c:	45534e45 	ldrbmi	r4, [r3, #-3653]	; 0xfffff1bb
 370:	4d005254 	sfmmi	f5, 4, [r0, #-336]	; 0xfffffeb0
 374:	48415f43 	stmdami	r1, {r0, r1, r6, r8, r9, sl, fp, ip, lr}^
 378:	4e453242 	cdpmi	2, 4, cr3, cr5, cr2, {2}
 37c:	52524c43 	subspl	r4, r2, #17152	; 0x4300
 380:	4d445300 	stclmi	3, cr5, [r4, #-0]
 384:	4333434d 	teqmi	r3, #872415233	; 0x34000001
 388:	4c45534b 	mcrrmi	3, 4, r5, r5, cr11
 38c:	504d0052 	subpl	r0, sp, r2, asr r0
 390:	4250415f 	subsmi	r4, r0, #-1073741801	; 0xc0000017
 394:	434e4535 	movtmi	r4, #58677	; 0xe535
 398:	0052524c 	subseq	r5, r2, ip, asr #4
 39c:	525f5242 	subspl	r5, pc, #536870916	; 0x20000004
 3a0:	43535453 	cmpmi	r3, #1392508928	; 0x53000000
 3a4:	0052524c 	subseq	r5, r2, ip, asr #4
 3a8:	415f434d 	cmpmi	pc, sp, asr #6
 3ac:	4c334248 	lfmmi	f4, 4, [r3], #-288	; 0xfffffee0
 3b0:	434e4550 	movtmi	r4, #58704	; 0xe550
 3b4:	0052524c 	subseq	r5, r2, ip, asr #4
 3b8:	4d5f504d 	ldclmi	0, cr5, [pc, #-308]	; 28c <_start-0xc0007d74>
 3bc:	4248414c 	submi	r4, r8, #76, 2
 3c0:	4e45504c 	cdpmi	0, 4, cr5, cr5, cr12, {2}
 3c4:	52544553 	subspl	r4, r4, #348127232	; 0x14c00000
 3c8:	54504c00 	ldrbpl	r4, [r0], #-3072	; 0xfffff400
 3cc:	43314d49 	teqmi	r1, #4672	; 0x1240
 3d0:	4c45534b 	mcrrmi	3, 4, r5, r5, cr11
 3d4:	434d0052 	movtmi	r0, #53330	; 0xd052
 3d8:	4250415f 	subsmi	r4, r0, #-1073741801	; 0xc0000017
 3dc:	534e4532 	movtpl	r4, #58674	; 0xe532
 3e0:	00525445 	subseq	r5, r2, r5, asr #8
 3e4:	54524155 	ldrbpl	r4, [r2], #-341	; 0xfffffeab
 3e8:	534b4331 	movtpl	r4, #45873	; 0xb331
 3ec:	00524c45 	subseq	r4, r2, r5, asr #24
 3f0:	415f504d 	cmpmi	pc, sp, asr #32
 3f4:	45364248 	ldrmi	r4, [r6, #-584]!	; 0xfffffdb8
 3f8:	5445534e 	strbpl	r5, [r5], #-846	; 0xfffffcb2
 3fc:	504d0052 	subpl	r0, sp, r2, asr r0
 400:	4248415f 	submi	r4, r8, #-1073741801	; 0xc0000017
 404:	45504c32 	ldrbmi	r4, [r0, #-3122]	; 0xfffff3ce
 408:	5445534e 	strbpl	r5, [r5], #-846	; 0xfffffcb2
 40c:	4c500052 	mrrcmi	0, 5, r0, r0, cr2	; <UNPREDICTABLE>
 410:	4643324c 	strbmi	r3, [r3], -ip, asr #4
 414:	00315247 	eorseq	r5, r1, r7, asr #4
 418:	415f434d 	cmpmi	pc, sp, asr #6
 41c:	45344250 	ldrmi	r4, [r4, #-592]!	; 0xfffffdb0
 420:	5445534e 	strbpl	r5, [r5], #-846	; 0xfffffcb2
 424:	48410052 	stmdami	r1, {r1, r4, r6}^
 428:	53523542 	cmppl	r2, #276824064	; 0x10800000
 42c:	524c4354 	subpl	r4, ip, #84, 6	; 0x50000001
 430:	50530052 	subspl	r0, r3, r2, asr r0
 434:	4b433649 	blmi	10cdd60 <_start-0xbef3a2a0>
 438:	524c4553 	subpl	r4, ip, #348127232	; 0x14c00000
 43c:	73657200 	cmnvc	r5, #0, 4
 440:	72003032 	andvc	r3, r0, #50	; 0x32
 444:	31327365 	teqcc	r2, r5, ror #6
 448:	52415500 	subpl	r5, r1, #0, 10
 44c:	43383754 	teqmi	r8, #84, 14	; 0x1500000
 450:	4c45534b 	mcrrmi	3, 4, r5, r5, cr11
 454:	65720052 	ldrbvs	r0, [r2, #-82]!	; 0xffffffae
 458:	00333273 	eorseq	r3, r3, r3, ror r2
 45c:	48415a54 	stmdami	r1, {r2, r4, r6, r9, fp, ip, lr}^
 460:	53523642 	cmppl	r2, #69206016	; 0x4200000
 464:	4c455354 	mcrrmi	3, 5, r5, r5, cr4
 468:	504d0052 	subpl	r0, sp, r2, asr r0
 46c:	414c4d5f 	cmpmi	ip, pc, asr sp
 470:	4e454248 	cdpmi	2, 4, cr4, cr5, cr8, {2}
 474:	52544553 	subspl	r4, r4, #348127232	; 0x14c00000
 478:	42504100 	subsmi	r4, r0, #0, 2
 47c:	54535232 	ldrbpl	r5, [r3], #-562	; 0xfffffdce
 480:	52524c43 	subspl	r4, r2, #17152	; 0x4300
 484:	73657200 	cmnvc	r5, #0, 4
 488:	41003732 	tstmi	r0, r2, lsr r7
 48c:	44314250 	ldrtmi	r4, [r1], #-592	; 0xfffffdb0
 490:	00525649 	subseq	r5, r2, r9, asr #12
 494:	415f434d 	cmpmi	pc, sp, asr #6
 498:	4c354248 	lfmmi	f4, 4, [r5], #-288	; 0xfffffee0
 49c:	534e4550 	movtpl	r4, #58704	; 0xe550
 4a0:	00525445 	subseq	r5, r2, r5, asr #8
 4a4:	34425041 	strbcc	r5, [r2], #-65	; 0xffffffbf
 4a8:	43545352 	cmpmi	r4, #1207959553	; 0x48000001
 4ac:	0052524c 	subseq	r5, r2, ip, asr #4
 4b0:	314c4c50 	cmpcc	ip, r0, asr ip
 4b4:	43415246 	movtmi	r5, #4678	; 0x1246
 4b8:	65720052 	ldrbvs	r0, [r2, #-82]!	; 0xffffffae
 4bc:	72003173 	andvc	r3, r0, #-1073741796	; 0xc000001c
 4c0:	00327365 	eorseq	r7, r2, r5, ror #6
 4c4:	33736572 	cmncc	r3, #478150656	; 0x1c800000
 4c8:	73657200 	cmnvc	r5, #0, 4
 4cc:	65720034 	ldrbvs	r0, [r2, #-52]!	; 0xffffffcc
 4d0:	72003573 	andvc	r3, r0, #482344960	; 0x1cc00000
 4d4:	00367365 	eorseq	r7, r6, r5, ror #6
 4d8:	37736572 			; <UNDEFINED> instruction: 0x37736572
 4dc:	73657200 	cmnvc	r5, #0, 4
 4e0:	65720038 	ldrbvs	r0, [r2, #-56]!	; 0xffffffc8
 4e4:	41003973 	tstmi	r0, r3, ror r9
 4e8:	52344248 	eorspl	r4, r4, #72, 4	; 0x80000004
 4ec:	4c435453 	cfstrdmi	mvd5, [r3], {83}	; 0x53
 4f0:	4d005252 	sfmmi	f5, 4, [r0, #-328]	; 0xfffffeb8
 4f4:	48415f50 	stmdami	r1, {r4, r6, r8, r9, sl, fp, ip, lr}^
 4f8:	504c3442 	subpl	r3, ip, r2, asr #8
 4fc:	4c434e45 	mcrrmi	14, 4, r4, r3, cr5
 500:	4d005252 	sfmmi	f5, 4, [r0, #-328]	; 0xfffffeb8
 504:	48415f43 	stmdami	r1, {r0, r1, r6, r8, r9, sl, fp, ip, lr}^
 508:	4e453642 	cdpmi	6, 4, cr3, cr5, cr2, {2}
 50c:	52524c43 	subspl	r4, r2, #17152	; 0x4300
 510:	4c4c5000 	marmi	acc0, r5, ip
 514:	47534334 	smmlarmi	r3, r4, r3, r4
 518:	504c0052 	subpl	r0, ip, r2, asr r0
 51c:	344d4954 	strbcc	r4, [sp], #-2388	; 0xfffff6ac
 520:	534b4335 	movtpl	r4, #45877	; 0xb335
 524:	00524c45 	subseq	r4, r2, r5, asr #24
 528:	4d5f434d 	ldclmi	3, cr4, [pc, #-308]	; 3fc <_start-0xc0007c04>
 52c:	4248414c 	submi	r4, r8, #76, 2
 530:	4c434e45 	mcrrmi	14, 4, r4, r3, cr5
 534:	4d005252 	sfmmi	f5, 4, [r0, #-328]	; 0xfffffeb8
 538:	5a545f50 	bpl	1518280 <_start-0xbeaefd80>
 53c:	36424841 	strbcc	r4, [r2], -r1, asr #16
 540:	4e45504c 	cdpmi	0, 4, cr5, cr5, cr12, {2}
 544:	52544553 	subspl	r4, r4, #348127232	; 0x14c00000
 548:	73657200 	cmnvc	r5, #0, 4
 54c:	45003532 	strmi	r3, [r0, #-1330]	; 0xffffface
 550:	4b434854 	blmi	10d26a8 <_start-0xbef35958>
 554:	524c4553 	subpl	r4, ip, #348127232	; 0x14c00000
 558:	5f434d00 	svcpl	0x00434d00
 55c:	48414c4d 	stmdami	r1, {r0, r2, r3, r6, sl, fp, lr}^
 560:	45504c42 	ldrbmi	r4, [r0, #-3138]	; 0xfffff3be
 564:	5445534e 	strbpl	r5, [r5], #-846	; 0xfffffcb2
 568:	50410052 	subpl	r0, r1, r2, asr r0
 56c:	53523242 	cmppl	r2, #536870916	; 0x20000004
 570:	54455354 	strbpl	r5, [r5], #-852	; 0xfffffcac
 574:	434f0052 	movtmi	r0, #61522	; 0xf052
 578:	45534e45 	ldrbmi	r4, [r3, #-3653]	; 0xfffff1bb
 57c:	4d005254 	sfmmi	f5, 4, [r0, #-336]	; 0xfffffeb0
 580:	48415f43 	stmdami	r1, {r0, r1, r6, r8, r9, sl, fp, ip, lr}^
 584:	504c3442 	subpl	r3, ip, r2, asr #8
 588:	4c434e45 	mcrrmi	14, 4, r4, r3, cr5
 58c:	4d005252 	sfmmi	f5, 4, [r0, #-328]	; 0xfffffeb8
 590:	48415f50 	stmdami	r1, {r4, r6, r8, r9, sl, fp, ip, lr}^
 594:	4e453442 	cdpmi	4, 4, cr3, cr5, cr2, {2}
 598:	52524c43 	subspl	r4, r2, #17152	; 0x4300
 59c:	5f434d00 	svcpl	0x00434d00
 5a0:	4d495841 	stclmi	8, cr5, [r9, #-260]	; 0xfffffefc
 5a4:	4e45504c 	cdpmi	0, 4, cr5, cr5, cr12, {2}
 5a8:	52544553 	subspl	r4, r4, #348127232	; 0x14c00000
 5ac:	5f504d00 	svcpl	0x00504d00
 5b0:	33424841 	movtcc	r4, #10305	; 0x2841
 5b4:	4e45504c 	cdpmi	0, 4, cr5, cr5, cr12, {2}
 5b8:	52544553 	subspl	r4, r4, #348127232	; 0x14c00000
 5bc:	5f434d00 	svcpl	0x00434d00
 5c0:	4d495841 	stclmi	8, cr5, [r9, #-260]	; 0xfffffefc
 5c4:	4c434e45 	mcrrmi	14, 4, r4, r3, cr5
 5c8:	4d005252 	sfmmi	f5, 4, [r0, #-328]	; 0xfffffeb8
 5cc:	48415f43 	stmdami	r1, {r0, r1, r6, r8, r9, sl, fp, ip, lr}^
 5d0:	4e453442 	cdpmi	4, 4, cr3, cr5, cr2, {2}
 5d4:	52524c43 	subspl	r4, r2, #17152	; 0x4300
 5d8:	42484100 	submi	r4, r8, #0, 2
 5dc:	54535232 	ldrbpl	r5, [r3], #-562	; 0xfffffdce
 5e0:	52544553 	subspl	r4, r4, #348127232	; 0x14c00000
 5e4:	4b435200 	blmi	10d4dec <_start-0xbef33214>
 5e8:	4c455334 	mcrrmi	3, 3, r5, r5, cr4
 5ec:	504d0052 	subpl	r0, sp, r2, asr r0
 5f0:	4250415f 	subsmi	r4, r0, #-1073741801	; 0xc0000017
 5f4:	534e4534 	movtpl	r4, #58676	; 0xe534
 5f8:	00525445 	subseq	r5, r2, r5, asr #8
 5fc:	31736572 	cmncc	r3, r2, ror r5
 600:	434d0030 	movtmi	r0, #53296	; 0xd030
 604:	4250415f 	subsmi	r4, r0, #-1073741801	; 0xc0000017
 608:	45504c31 	ldrbmi	r4, [r0, #-3121]	; 0xfffff3cf
 60c:	524c434e 	subpl	r4, ip, #939524097	; 0x38000001
 610:	4c500052 	mrrcmi	0, 5, r0, r0, cr2	; <UNPREDICTABLE>
 614:	5246324c 	subpl	r3, r6, #76, 4	; 0xc0000004
 618:	00524341 	subseq	r4, r2, r1, asr #6
 61c:	54524155 	ldrbpl	r4, [r2], #-341	; 0xfffffeab
 620:	4b433432 	blmi	10cd6f0 <_start-0xbef3a910>
 624:	524c4553 	subpl	r4, ip, #348127232	; 0x14c00000
 628:	4f434d00 	svcmi	0x00434d00
 62c:	47464331 	smlaldxmi	r4, r6, r1, r3
 630:	434d0052 	movtmi	r0, #53330	; 0xd052
 634:	4250415f 	subsmi	r4, r0, #-1073741801	; 0xc0000017
 638:	45504c32 	ldrbmi	r4, [r0, #-3122]	; 0xfffff3ce
 63c:	5445534e 	strbpl	r5, [r5], #-846	; 0xfffffcb2
 640:	63720052 	cmnvs	r2, #82	; 0x52
 644:	00745f63 	rsbseq	r5, r4, r3, ror #30
 648:	415f434d 	cmpmi	pc, sp, asr #6
 64c:	4c364248 	lfmmi	f4, 4, [r6], #-288	; 0xfffffee0
 650:	534e4550 	movtpl	r4, #58704	; 0xe550
 654:	00525445 	subseq	r5, r2, r5, asr #8
 658:	31736572 	cmncc	r3, r2, ror r5
 65c:	4c500038 	mrrcmi	0, 3, r0, r0, cr8	; <UNPREDICTABLE>
 660:	5343314c 	movtpl	r3, #12620	; 0x314c
 664:	46005247 	strmi	r5, [r0], -r7, asr #4
 668:	4e414344 	cdpmi	3, 4, cr4, cr1, cr4, {2}
 66c:	45534b43 	ldrbmi	r4, [r3, #-2883]	; 0xfffff4bd
 670:	5300524c 	movwpl	r5, #588	; 0x24c
 674:	43314941 	teqmi	r1, #1064960	; 0x104000
 678:	4c45534b 	mcrrmi	3, 4, r5, r5, cr11
 67c:	504d0052 	subpl	r0, sp, r2, asr r0
 680:	414c4d5f 	cmpmi	ip, pc, asr sp
 684:	504c4248 	subpl	r4, ip, r8, asr #4
 688:	4c434e45 	mcrrmi	14, 4, r4, r3, cr5
 68c:	4d005252 	sfmmi	f5, 4, [r0, #-328]	; 0xfffffeb8
 690:	50415f43 	subpl	r5, r1, r3, asr #30
 694:	4e453242 	cdpmi	2, 4, cr3, cr5, cr2, {2}
 698:	52524c43 	subspl	r4, r2, #17152	; 0x4300
 69c:	5f504d00 	svcpl	0x00504d00
 6a0:	36424841 	strbcc	r4, [r2], -r1, asr #16
 6a4:	4c434e45 	mcrrmi	14, 4, r4, r3, cr5
 6a8:	4d005252 	sfmmi	f5, 4, [r0, #-328]	; 0xfffffeb8
 6ac:	48415f50 	stmdami	r1, {r4, r6, r8, r9, sl, fp, ip, lr}^
 6b0:	504c3242 	subpl	r3, ip, r2, asr #4
 6b4:	4c434e45 	mcrrmi	14, 4, r4, r3, cr5
 6b8:	4d005252 	sfmmi	f5, 4, [r0, #-328]	; 0xfffffeb8
 6bc:	48415f50 	stmdami	r1, {r4, r6, r8, r9, sl, fp, ip, lr}^
 6c0:	4e453442 	cdpmi	4, 4, cr3, cr5, cr2, {2}
 6c4:	52544553 	subspl	r4, r4, #348127232	; 0x14c00000
 6c8:	49415300 	stmdbmi	r1, {r8, r9, ip, lr}^
 6cc:	534b4333 	movtpl	r4, #45875	; 0xb333
 6d0:	00524c45 	subseq	r4, r2, r5, asr #24
 6d4:	4b43504d 	blmi	10d4810 <_start-0xbef337f0>
 6d8:	524c4553 	subpl	r4, ip, #348127232	; 0x14c00000
 6dc:	5f434d00 	svcpl	0x00434d00
 6e0:	48414c4d 	stmdami	r1, {r0, r2, r3, r6, sl, fp, lr}^
 6e4:	45504c42 	ldrbmi	r4, [r0, #-3138]	; 0xfffff3be
 6e8:	524c434e 	subpl	r4, ip, #939524097	; 0x38000001
 6ec:	434d0052 	movtmi	r0, #53330	; 0xd052
 6f0:	4250415f 	subsmi	r4, r0, #-1073741801	; 0xc0000017
 6f4:	434e4534 	movtmi	r4, #58676	; 0xe534
 6f8:	0052524c 	subseq	r5, r2, ip, asr #4
 6fc:	43495348 	movtmi	r5, #37704	; 0x9348
 700:	00524746 	subseq	r4, r2, r6, asr #14
 704:	32474e52 	subcc	r4, r7, #1312	; 0x520
 708:	45534b43 	ldrbmi	r4, [r3, #-2883]	; 0xfffff4bd
 70c:	4d00524c 	sfmmi	f5, 4, [r0, #-304]	; 0xfffffed0
 710:	4c4d5f50 	mcrrmi	15, 5, r5, sp, cr0
 714:	45424841 	strbmi	r4, [r2, #-2113]	; 0xfffff7bf
 718:	524c434e 	subpl	r4, ip, #939524097	; 0x38000001
 71c:	48410052 	stmdami	r1, {r1, r4, r6}^
 720:	53523542 	cmppl	r2, #276824064	; 0x10800000
 724:	54455354 	strbpl	r5, [r5], #-852	; 0xfffffcac
 728:	50410052 	subpl	r0, r1, r2, asr r0
 72c:	53523342 	cmppl	r2, #134217729	; 0x8000001
 730:	54455354 	strbpl	r5, [r5], #-852	; 0xfffffcac
 734:	434d0052 	movtmi	r0, #53330	; 0xd052
 738:	4248415f 	submi	r4, r8, #-1073741801	; 0xc0000017
 73c:	45504c35 	ldrbmi	r4, [r0, #-3125]	; 0xfffff3cb
 740:	524c434e 	subpl	r4, ip, #939524097	; 0x38000001
 744:	57500052 			; <UNDEFINED> instruction: 0x57500052
 748:	44504c52 	ldrbmi	r4, [r0], #-3154	; 0xfffff3ae
 74c:	5243594c 	subpl	r5, r3, #76, 18	; 0x130000
 750:	42484100 	submi	r4, r8, #0, 2
 754:	54535233 	ldrbpl	r5, [r3], #-563	; 0xfffffdcd
 758:	52544553 	subspl	r4, r4, #348127232	; 0x14c00000
 75c:	73657200 	cmnvc	r5, #0, 4
 760:	4d003632 	stcmi	6, cr3, [r0, #-200]	; 0xffffff38
 764:	53525f43 	cmppl	r2, #268	; 0x10c
 768:	4c435354 	mcrrmi	3, 5, r5, r3, cr4
 76c:	53005252 	movwpl	r5, #594	; 0x252
 770:	00524449 	subseq	r4, r2, r9, asr #8
 774:	33433249 	movtcc	r3, #12873	; 0x3249
 778:	534b4335 	movtpl	r4, #45877	; 0xb335
 77c:	00524c45 	subseq	r4, r2, r5, asr #24
 780:	475f504d 	ldrbmi	r5, [pc, -sp, asr #32]
 784:	43545352 	cmpmi	r4, #1207959553	; 0x48000001
 788:	52544553 	subspl	r4, r4, #348127232	; 0x14c00000
 78c:	42504100 	subsmi	r4, r0, #0, 2
 790:	56494433 			; <UNDEFINED> instruction: 0x56494433
 794:	504d0052 	subpl	r0, sp, r2, asr r0
 798:	4248415f 	submi	r4, r8, #-1073741801	; 0xc0000017
 79c:	45504c34 	ldrbmi	r4, [r0, #-3124]	; 0xfffff3cc
 7a0:	5445534e 	strbpl	r5, [r5], #-846	; 0xfffffcb2
 7a4:	32490052 	subcc	r0, r9, #82	; 0x52
 7a8:	43323143 	teqmi	r2, #-1073741808	; 0xc0000010
 7ac:	4c45534b 	mcrrmi	3, 4, r5, r5, cr11
 7b0:	434d0052 	movtmi	r0, #53330	; 0xd052
 7b4:	414c4d5f 	cmpmi	ip, pc, asr sp
 7b8:	4e454248 	cdpmi	2, 4, cr4, cr5, cr8, {2}
 7bc:	52544553 	subspl	r4, r4, #348127232	; 0x14c00000
 7c0:	5f434d00 	svcpl	0x00434d00
 7c4:	33424841 	movtcc	r4, #10305	; 0x2841
 7c8:	45534e45 	ldrbmi	r4, [r3, #-3653]	; 0xfffff1bb
 7cc:	50005254 	andpl	r5, r0, r4, asr r2
 7d0:	43314c4c 	teqmi	r1, #76, 24	; 0x4c00
 7d4:	31524746 	cmpcc	r2, r6, asr #14
 7d8:	4c4c5000 	marmi	acc0, r5, ip
 7dc:	47464331 	smlaldxmi	r4, r6, r1, r3
 7e0:	4d003252 	sfmmi	f3, 4, [r0, #-328]	; 0xfffffeb8
 7e4:	50415f50 	subpl	r5, r1, r0, asr pc
 7e8:	4e453142 	dvfmism	f3, f5, f2
 7ec:	52544553 	subspl	r4, r4, #348127232	; 0x14c00000
 7f0:	415a5400 	cmpmi	sl, r0, lsl #8
 7f4:	52364248 	eorspl	r4, r6, #72, 4	; 0x80000004
 7f8:	4c435453 	cfstrdmi	mvd5, [r3], {83}	; 0x53
 7fc:	41005252 	tstmi	r0, r2, asr r2
 800:	52334248 	eorspl	r4, r3, #72, 4	; 0x80000004
 804:	4c435453 	cfstrdmi	mvd5, [r3], {83}	; 0x53
 808:	64005252 	strvs	r5, [r0], #-594	; 0xfffffdae
 80c:	79616c65 	stmdbvc	r1!, {r0, r2, r5, r6, sl, fp, sp, lr}^
 810:	3173755f 	cmncc	r3, pc, asr r5
 814:	5f504d00 	svcpl	0x00504d00
 818:	48415a54 	stmdami	r1, {r2, r4, r6, r9, fp, ip, lr}^
 81c:	504c3642 	subpl	r3, ip, r2, asr #12
 820:	4c434e45 	mcrrmi	14, 4, r4, r3, cr5
 824:	4d005252 	sfmmi	f5, 4, [r0, #-328]	; 0xfffffeb8
 828:	48415f43 	stmdami	r1, {r0, r1, r6, r8, r9, sl, fp, ip, lr}^
 82c:	4e453542 	cdpmi	5, 4, cr3, cr5, cr2, {2}
 830:	52544553 	subspl	r4, r4, #348127232	; 0x14c00000
 834:	5f504d00 	svcpl	0x00504d00
 838:	33425041 	movtcc	r5, #8257	; 0x2041
 83c:	4e45504c 	cdpmi	0, 4, cr5, cr5, cr12, {2}
 840:	52544553 	subspl	r4, r4, #348127232	; 0x14c00000
 844:	49534400 	ldmdbmi	r3, {sl, lr}^
 848:	45534b43 	ldrbmi	r4, [r3, #-2883]	; 0xfffff4bd
 84c:	5300524c 	movwpl	r5, #588	; 0x24c
 850:	53324950 	teqpl	r2, #80, 18	; 0x140000
 854:	4b433332 	blmi	10cd524 <_start-0xbef3aadc>
 858:	524c4553 	subpl	r4, ip, #348127232	; 0x14c00000
 85c:	45434f00 	strbmi	r4, [r3, #-3840]	; 0xfffff100
 860:	524c434e 	subpl	r4, ip, #939524097	; 0x38000001
 864:	42440052 	submi	r0, r4, #82	; 0x52
 868:	47464347 	strbmi	r4, [r6, -r7, asr #6]
 86c:	434d0052 	movtmi	r0, #53330	; 0xd052
 870:	4250415f 	subsmi	r4, r0, #-1073741801	; 0xc0000017
 874:	45504c33 	ldrbmi	r4, [r0, #-3123]	; 0xfffff3cd
 878:	5445534e 	strbpl	r5, [r5], #-846	; 0xfffffcb2
 87c:	434d0052 	movtmi	r0, #53330	; 0xd052
 880:	4643324f 	strbmi	r3, [r3], -pc, asr #4
 884:	4d005247 	sfmmi	f5, 4, [r0, #-284]	; 0xfffffee4
 888:	57495f50 	smlsldpl	r5, r9, r0, pc	; <UNPREDICTABLE>
 88c:	5a464744 	bpl	11925a4 <_start-0xbee75a5c>
 890:	52544553 	subspl	r4, r4, #348127232	; 0x14c00000
 894:	43545200 	cmpmi	r4, #0, 4
 898:	52564944 	subspl	r4, r6, #68, 18	; 0x110000
 89c:	47545300 	ldrbmi	r5, [r4, -r0, lsl #6]
 8a0:	4b434e45 	blmi	10d41bc <_start-0xbef33e44>
 8a4:	524c4553 	subpl	r4, ip, #348127232	; 0x14c00000
 8a8:	5f434d00 	svcpl	0x00434d00
 8ac:	34425041 	strbcc	r5, [r2], #-65	; 0xffffffbf
 8b0:	4e45504c 	cdpmi	0, 4, cr5, cr5, cr12, {2}
 8b4:	52544553 	subspl	r4, r4, #348127232	; 0x14c00000
 8b8:	52415500 	subpl	r5, r1, #0, 10
 8bc:	43353354 	teqmi	r5, #84, 6	; 0x50000001
 8c0:	4c45534b 	mcrrmi	3, 4, r5, r5, cr11
 8c4:	504d0052 	subpl	r0, sp, r2, asr r0
 8c8:	4250415f 	subsmi	r4, r0, #-1073741801	; 0xc0000017
 8cc:	434e4534 	movtmi	r4, #58676	; 0xe534
 8d0:	0052524c 	subseq	r5, r2, ip, asr #4
 8d4:	415f434d 	cmpmi	pc, sp, asr #6
 8d8:	45334250 	ldrmi	r4, [r3, #-592]!	; 0xfffffdb0
 8dc:	524c434e 	subpl	r4, ip, #939524097	; 0x38000001
 8e0:	49540052 	ldmdbmi	r4, {r1, r4, r6}^
 8e4:	5032474d 	eorspl	r4, r2, sp, asr #14
 8e8:	00524552 	subseq	r4, r2, r2, asr r5
 8ec:	334c4c50 	movtcc	r4, #52304	; 0xcc50
 8f0:	4d005243 	sfmmi	f5, 4, [r0, #-268]	; 0xfffffef4
 8f4:	50415f50 	subpl	r5, r1, r0, asr pc
 8f8:	4e453242 	cdpmi	2, 4, cr3, cr5, cr2, {2}
 8fc:	52544553 	subspl	r4, r4, #348127232	; 0x14c00000
 900:	4c4c5000 	marmi	acc0, r5, ip
 904:	41524634 	cmpmi	r2, r4, lsr r6
 908:	4d005243 	sfmmi	f5, 4, [r0, #-268]	; 0xfffffef4
 90c:	50415f50 	subpl	r5, r1, r0, asr pc
 910:	504c3242 	subpl	r3, ip, r2, asr #4
 914:	4c434e45 	mcrrmi	14, 4, r4, r3, cr5
 918:	41005252 	tstmi	r0, r2, asr r2
 91c:	52314250 	eorspl	r4, r1, #80, 4
 920:	45535453 	ldrbmi	r5, [r3, #-1107]	; 0xfffffbad
 924:	4d005254 	sfmmi	f5, 4, [r0, #-336]	; 0xfffffeb0
 928:	48415f43 	stmdami	r1, {r0, r1, r6, r8, r9, sl, fp, ip, lr}^
 92c:	504c3342 	subpl	r3, ip, r2, asr #6
 930:	45534e45 	ldrbmi	r4, [r3, #-3653]	; 0xfffff1bb
 934:	4d005254 	sfmmi	f5, 4, [r0, #-336]	; 0xfffffeb0
 938:	48415f43 	stmdami	r1, {r0, r1, r6, r8, r9, sl, fp, ip, lr}^
 93c:	504c3642 	subpl	r3, ip, r2, asr #12
 940:	4c434e45 	mcrrmi	14, 4, r4, r3, cr5
 944:	52005252 	andpl	r5, r0, #536870917	; 0x20000005
 948:	49534c44 	ldmdbmi	r3, {r2, r6, sl, fp, lr}^
 94c:	50005243 	andpl	r5, r0, r3, asr #4
 950:	43344c4c 	teqmi	r4, #76, 24	; 0x4c00
 954:	43500052 	cmpmi	r0, #82	; 0x52
 958:	5332314b 	teqpl	r2, #-1073741806	; 0xc0000012
 95c:	00524c45 	subseq	r4, r2, r5, asr #24
 960:	324c4c50 	subcc	r4, ip, #80, 24	; 0x5000
 964:	52474643 	subpl	r4, r7, #70254592	; 0x4300000
 968:	4c500032 	mrrcmi	0, 3, r0, r0, cr2	; <UNPREDICTABLE>
 96c:	4643344c 	strbmi	r3, [r3], -ip, asr #8
 970:	00315247 	eorseq	r5, r1, r7, asr #4
 974:	32736572 	rsbscc	r6, r3, #478150656	; 0x1c800000
 978:	504d0034 	subpl	r0, sp, r4, lsr r0
 97c:	4248415f 	submi	r4, r8, #-1073741801	; 0xc0000017
 980:	45504c35 	ldrbmi	r4, [r0, #-3125]	; 0xfffff3cb
 984:	5445534e 	strbpl	r5, [r5], #-846	; 0xfffffcb2
 988:	504d0052 	subpl	r0, sp, r2, asr r0
 98c:	4248415f 	submi	r4, r8, #-1073741801	; 0xc0000017
 990:	534e4533 	movtpl	r4, #58675	; 0xe533
 994:	00525445 	subseq	r5, r2, r5, asr #8
 998:	334c4c50 	movtcc	r4, #52304	; 0xcc50
 99c:	52475343 	subpl	r5, r7, #201326593	; 0xc000001
 9a0:	5f504d00 	svcpl	0x00504d00
 9a4:	51455253 	cmppl	r5, r3, asr r2
 9a8:	52544553 	subspl	r4, r4, #348127232	; 0x14c00000
 9ac:	5f434d00 	svcpl	0x00434d00
 9b0:	32424841 	subcc	r4, r2, #4259840	; 0x410000
 9b4:	4e45504c 	cdpmi	0, 4, cr5, cr5, cr12, {2}
 9b8:	52544553 	subspl	r4, r4, #348127232	; 0x14c00000
 9bc:	5f504d00 	svcpl	0x00504d00
 9c0:	4d495841 	stclmi	8, cr5, [r9, #-260]	; 0xfffffefc
 9c4:	4e45504c 	cdpmi	0, 4, cr5, cr5, cr12, {2}
 9c8:	52544553 	subspl	r4, r4, #348127232	; 0x14c00000
 9cc:	5f434d00 	svcpl	0x00434d00
 9d0:	33425041 	movtcc	r5, #8257	; 0x2041
 9d4:	4e45504c 	cdpmi	0, 4, cr5, cr5, cr12, {2}
 9d8:	52524c43 	subspl	r4, r2, #17152	; 0x4300
 9dc:	5f434d00 	svcpl	0x00434d00
 9e0:	31425041 	cmpcc	r2, r1, asr #32
 9e4:	45534e45 	ldrbmi	r4, [r3, #-3653]	; 0xfffff1bb
 9e8:	4d005254 	sfmmi	f5, 4, [r0, #-336]	; 0xfffffeb0
 9ec:	444b4350 	strbmi	r4, [fp], #-848	; 0xfffffcb0
 9f0:	00525649 	subseq	r5, r2, r9, asr #12
 9f4:	49524444 	ldmdbmi	r2, {r2, r6, sl, lr}^
 9f8:	52434654 	subpl	r4, r3, #84, 12	; 0x5400000
 9fc:	45504300 	ldrbmi	r4, [r0, #-768]	; 0xfffffd00
 a00:	534b4352 	movtpl	r4, #45906	; 0xb352
 a04:	00524c45 	subseq	r4, r2, r5, asr #24
 a08:	43434543 	movtmi	r4, #13635	; 0x3543
 a0c:	4c45534b 	mcrrmi	3, 4, r5, r5, cr11
 a10:	504d0052 	subpl	r0, sp, r2, asr r0
 a14:	4549435f 	strbmi	r4, [r9, #-863]	; 0xfffffca1
 a18:	44410052 	strbmi	r0, [r1], #-82	; 0xffffffae
 a1c:	534b4343 	movtpl	r4, #45891	; 0xb343
 a20:	00524c45 	subseq	r4, r2, r5, asr #24
 a24:	415f434d 	cmpmi	pc, sp, asr #6
 a28:	45334250 	ldrmi	r4, [r3, #-592]!	; 0xfffffdb0
 a2c:	5445534e 	strbpl	r5, [r5], #-846	; 0xfffffcb2
 a30:	434d0052 	movtmi	r0, #53330	; 0xd052
 a34:	4958415f 	ldmdbmi	r8, {r0, r1, r2, r3, r4, r6, r8, lr}^
 a38:	45504c4d 	ldrbmi	r4, [r0, #-3149]	; 0xfffff3b3
 a3c:	524c434e 	subpl	r4, ip, #939524097	; 0x38000001
 a40:	48410052 	stmdami	r1, {r1, r4, r6}^
 a44:	53523642 	cmppl	r2, #69206016	; 0x4200000
 a48:	54455354 	strbpl	r5, [r5], #-852	; 0xfffffcac
 a4c:	504d0052 	subpl	r0, sp, r2, asr r0
 a50:	5250415f 	subspl	r4, r0, #-1073741801	; 0xc0000017
 a54:	52435453 	subpl	r5, r3, #1392508928	; 0x53000000
 a58:	42504100 	subsmi	r4, r0, #0, 2
 a5c:	54535235 	ldrbpl	r5, [r3], #-565	; 0xfffffdcb
 a60:	52544553 	subspl	r4, r4, #348127232	; 0x14c00000
 a64:	5f434d00 	svcpl	0x00434d00
 a68:	33424841 	movtcc	r4, #10305	; 0x2841
 a6c:	4c434e45 	mcrrmi	14, 4, r4, r3, cr5
 a70:	52005252 	andpl	r5, r0, #536870917	; 0x20000005
 a74:	53334b43 	teqpl	r3, #68608	; 0x10c00
 a78:	00524c45 	subseq	r4, r2, r5, asr #24
 a7c:	52524556 	subspl	r4, r2, #360710144	; 0x15800000
 a80:	5f434d00 	svcpl	0x00434d00
 a84:	35425041 	strbcc	r5, [r2, #-65]	; 0xffffffbf
 a88:	45534e45 	ldrbmi	r4, [r3, #-3653]	; 0xfffff1bb
 a8c:	4d005254 	sfmmi	f5, 4, [r0, #-336]	; 0xfffffeb0
 a90:	48415f43 	stmdami	r1, {r0, r1, r6, r8, r9, sl, fp, ip, lr}^
 a94:	4e453242 	cdpmi	2, 4, cr3, cr5, cr2, {2}
 a98:	52544553 	subspl	r4, r4, #348127232	; 0x14c00000
 a9c:	5f434d00 	svcpl	0x00434d00
 aa0:	35425041 	strbcc	r5, [r2, #-65]	; 0xffffffbf
 aa4:	4e45504c 	cdpmi	0, 4, cr5, cr5, cr12, {2}
 aa8:	52544553 	subspl	r4, r4, #348127232	; 0x14c00000
 aac:	55434d00 	strbpl	r4, [r3, #-3328]	; 0xfffff300
 ab0:	52564944 	subspl	r4, r6, #68, 18	; 0x110000
 ab4:	5f504d00 	svcpl	0x00504d00
 ab8:	31425041 	cmpcc	r2, r1, asr #32
 abc:	4c434e45 	mcrrmi	14, 4, r4, r3, cr5
 ac0:	4d005252 	sfmmi	f5, 4, [r0, #-328]	; 0xfffffeb8
 ac4:	43475f50 	movtmi	r5, #32592	; 0x7f50
 ac8:	50530052 	subspl	r0, r3, r2, asr r0
 acc:	31533249 	cmpcc	r3, r9, asr #4
 ad0:	45534b43 	ldrbmi	r4, [r3, #-2883]	; 0xfffff4bd
 ad4:	4100524c 	tstmi	r0, ip, asr #4
 ad8:	44354250 	ldrtmi	r4, [r5], #-592	; 0xfffffdb0
 adc:	00525649 	subseq	r5, r2, r9, asr #12
 ae0:	334c4c50 	movtcc	r4, #52304	; 0xcc50
 ae4:	52474643 	subpl	r4, r7, #70254592	; 0x4300000
 ae8:	504d0032 	subpl	r0, sp, r2, lsr r0
 aec:	4248415f 	submi	r4, r8, #-1073741801	; 0xc0000017
 af0:	45504c33 	ldrbmi	r4, [r0, #-3123]	; 0xfffff3cd
 af4:	524c434e 	subpl	r4, ip, #939524097	; 0x38000001
 af8:	4c500052 	mrrcmi	0, 5, r0, r0, cr2	; <UNPREDICTABLE>
 afc:	4643344c 	strbmi	r3, [r3], -ip, asr #8
 b00:	00325247 	eorseq	r5, r2, r7, asr #4
 b04:	54524155 	ldrbpl	r4, [r2], #-341	; 0xfffffeab
 b08:	534b4336 	movtpl	r4, #45878	; 0xb336
 b0c:	00524c45 	subseq	r4, r2, r5, asr #24
 b10:	415f434d 	cmpmi	pc, sp, asr #6
 b14:	45354248 	ldrmi	r4, [r5, #-584]!	; 0xfffffdb8
 b18:	524c434e 	subpl	r4, ip, #939524097	; 0x38000001
 b1c:	504d0052 	subpl	r0, sp, r2, asr r0
 b20:	4250415f 	subsmi	r4, r0, #-1073741801	; 0xc0000017
 b24:	45504c33 	ldrbmi	r4, [r0, #-3123]	; 0xfffff3cd
 b28:	524c434e 	subpl	r4, ip, #939524097	; 0x38000001
 b2c:	504d0052 	subpl	r0, sp, r2, asr r0
 b30:	415a545f 	cmpmi	sl, pc, asr r4
 b34:	45364248 	ldrmi	r4, [r6, #-584]!	; 0xfffffdb8
 b38:	4c45534e 	mcrrmi	3, 4, r5, r5, cr14
 b3c:	504d0052 	subpl	r0, sp, r2, asr r0
 b40:	4250415f 	subsmi	r4, r0, #-1073741801	; 0xc0000017
 b44:	434e4532 	movtmi	r4, #58674	; 0xe532
 b48:	0052524c 	subseq	r5, r2, ip, asr #4
 b4c:	324c4c50 	subcc	r4, ip, #80, 24	; 0x5000
 b50:	4d005243 	sfmmi	f5, 4, [r0, #-268]	; 0xfffffef4
 b54:	4b435353 	blmi	10d58a8 <_start-0xbef32758>
 b58:	524c4553 	subpl	r4, ip, #348127232	; 0x14c00000
 b5c:	44505300 	ldrbmi	r5, [r0], #-768	; 0xfffffd00
 b60:	4b434649 	blmi	10d248c <_start-0xbef35b74>
 b64:	524c4553 	subpl	r4, ip, #348127232	; 0x14c00000
 b68:	54504c00 	ldrbpl	r4, [r0], #-3072	; 0xfffff400
 b6c:	33324d49 	teqcc	r2, #4672	; 0x1240
 b70:	45534b43 	ldrbmi	r4, [r3, #-2883]	; 0xfffff4bd
 b74:	4d00524c 	sfmmi	f5, 4, [r0, #-304]	; 0xfffffed0
 b78:	48415f50 	stmdami	r1, {r4, r6, r8, r9, sl, fp, ip, lr}^
 b7c:	504c3642 	subpl	r3, ip, r2, asr #12
 b80:	45534e45 	ldrbmi	r4, [r3, #-3653]	; 0xfffff1bb
 b84:	4d005254 	sfmmi	f5, 4, [r0, #-336]	; 0xfffffeb0
 b88:	50415f43 	subpl	r5, r1, r3, asr #30
 b8c:	504c3242 	subpl	r3, ip, r2, asr #4
 b90:	4c434e45 	mcrrmi	14, 4, r4, r3, cr5
 b94:	4d005252 	sfmmi	f5, 4, [r0, #-328]	; 0xfffffeb8
 b98:	50415f50 	subpl	r5, r1, r0, asr pc
 b9c:	504c3542 	subpl	r3, ip, r2, asr #10
 ba0:	4c434e45 	mcrrmi	14, 4, r4, r3, cr5
 ba4:	4d005252 	sfmmi	f5, 4, [r0, #-328]	; 0xfffffeb8
 ba8:	57495f50 	smlsldpl	r5, r9, r0, pc	; <UNPREDICTABLE>
 bac:	5a464744 	bpl	11928c4 <_start-0xbee7573c>
 bb0:	52524c43 	subspl	r4, r2, #17152	; 0x4300
 bb4:	5f504d00 	svcpl	0x00504d00
 bb8:	53525041 	cmppl	r2, #65	; 0x41
 bbc:	00525354 	subseq	r5, r2, r4, asr r3
 bc0:	415f434d 	cmpmi	pc, sp, asr #6
 bc4:	4c344250 	lfmmi	f4, 4, [r4], #-320	; 0xfffffec0
 bc8:	434e4550 	movtmi	r4, #58704	; 0xe550
 bcc:	0052524c 	subseq	r5, r2, ip, asr #4
 bd0:	34424841 	strbcc	r4, [r2], #-2113	; 0xfffff7bf
 bd4:	53545352 	cmppl	r4, #1207959553	; 0x48000001
 bd8:	00525445 	subseq	r5, r2, r5, asr #8
 bdc:	32424841 	subcc	r4, r2, #4259840	; 0x410000
 be0:	43545352 	cmpmi	r4, #1207959553	; 0x48000001
 be4:	0052524c 	subseq	r5, r2, ip, asr #4
 be8:	435f504d 	cmpmi	pc, #77	; 0x4d
 bec:	00524649 	subseq	r4, r2, r9, asr #12
 bf0:	415f504d 	cmpmi	pc, sp, asr #32
 bf4:	45324248 	ldrmi	r4, [r2, #-584]!	; 0xfffffdb8
 bf8:	5445534e 	strbpl	r5, [r5], #-846	; 0xfffffcb2
 bfc:	504d0052 	subpl	r0, sp, r2, asr r0
 c00:	4250415f 	subsmi	r4, r0, #-1073741801	; 0xc0000017
 c04:	45504c35 	ldrbmi	r4, [r0, #-3125]	; 0xfffff3cb
 c08:	5445534e 	strbpl	r5, [r5], #-846	; 0xfffffcb2
 c0c:	504d0052 	subpl	r0, sp, r2, asr r0
 c10:	4250415f 	subsmi	r4, r0, #-1073741801	; 0xc0000017
 c14:	534e4533 	movtpl	r4, #58675	; 0xe533
 c18:	00525445 	subseq	r5, r2, r5, asr #8
 c1c:	31425041 	cmpcc	r2, r1, asr #32
 c20:	43545352 	cmpmi	r4, #1207959553	; 0x48000001
 c24:	0052524c 	subseq	r5, r2, ip, asr #4
 c28:	32425041 	subcc	r5, r2, #65	; 0x41
 c2c:	52564944 	subspl	r4, r6, #68, 18	; 0x110000
 c30:	5f504d00 	svcpl	0x00504d00
 c34:	35425041 	strbcc	r5, [r2, #-65]	; 0xffffffbf
 c38:	45534e45 	ldrbmi	r4, [r3, #-3653]	; 0xfffff1bb
 c3c:	4d005254 	sfmmi	f5, 4, [r0, #-336]	; 0xfffffeb0
 c40:	48415f50 	stmdami	r1, {r4, r6, r8, r9, sl, fp, ip, lr}^
 c44:	504c3542 	subpl	r3, ip, r2, asr #10
 c48:	4c434e45 	mcrrmi	14, 4, r4, r3, cr5
 c4c:	4d005252 	sfmmi	f5, 4, [r0, #-328]	; 0xfffffeb8
 c50:	53525f50 	cmppl	r2, #80, 30	; 0x140
 c54:	00535354 	subseq	r5, r3, r4, asr r3
 c58:	415f504d 	cmpmi	pc, sp, asr #32
 c5c:	45334248 	ldrmi	r4, [r3, #-584]!	; 0xfffffdb8
 c60:	524c434e 	subpl	r4, ip, #939524097	; 0x38000001
 c64:	50410052 	subpl	r0, r1, r2, asr r0
 c68:	53523342 	cmppl	r2, #134217729	; 0x8000001
 c6c:	524c4354 	subpl	r4, ip, #84, 6	; 0x50000001
 c70:	53430052 	movtpl	r0, #12370	; 0x3052
 c74:	47464349 	strbmi	r4, [r6, -r9, asr #6]
 c78:	504d0052 	subpl	r0, sp, r2, asr r0
 c7c:	4552535f 	ldrbmi	r5, [r2, #-863]	; 0xfffffca1
 c80:	524c4351 	subpl	r4, ip, #1140850689	; 0x44000001
 c84:	434d0052 	movtmi	r0, #53330	; 0xd052
 c88:	4549435f 	strbmi	r4, [r9, #-863]	; 0xfffffca1
 c8c:	434d0052 	movtmi	r0, #53330	; 0xd052
 c90:	4250415f 	subsmi	r4, r0, #-1073741801	; 0xc0000017
 c94:	434e4531 	movtmi	r4, #58673	; 0xe531
 c98:	0052524c 	subseq	r5, r2, ip, asr #4
 c9c:	415f504d 	cmpmi	pc, sp, asr #32
 ca0:	45354248 	ldrmi	r4, [r5, #-584]!	; 0xfffffdb8
 ca4:	524c434e 	subpl	r4, ip, #939524097	; 0x38000001
 ca8:	504d0052 	subpl	r0, sp, r2, asr r0
 cac:	4250415f 	subsmi	r4, r0, #-1073741801	; 0xc0000017
 cb0:	45504c34 	ldrbmi	r4, [r0, #-3124]	; 0xfffff3cc
 cb4:	5445534e 	strbpl	r5, [r5], #-846	; 0xfffffcb2
 cb8:	504d0052 	subpl	r0, sp, r2, asr r0
 cbc:	4250415f 	subsmi	r4, r0, #-1073741801	; 0xc0000017
 cc0:	45504c34 	ldrbmi	r4, [r0, #-3124]	; 0xfffff3cc
 cc4:	524c434e 	subpl	r4, ip, #939524097	; 0x38000001
 cc8:	41530052 	cmpmi	r3, r2, asr r0
 ccc:	4b433249 	blmi	10cd5f8 <_start-0xbef3aa08>
 cd0:	524c4553 	subpl	r4, ip, #348127232	; 0x14c00000
 cd4:	4d445300 	stclmi	3, cr5, [r4, #-0]
 cd8:	3231434d 	eorscc	r4, r1, #872415233	; 0x34000001
 cdc:	45534b43 	ldrbmi	r4, [r3, #-2883]	; 0xfffff4bd
 ce0:	4d00524c 	sfmmi	f5, 4, [r0, #-304]	; 0xfffffed0
 ce4:	48415f43 	stmdami	r1, {r0, r1, r6, r8, r9, sl, fp, ip, lr}^
 ce8:	504c3242 	subpl	r3, ip, r2, asr #4
 cec:	4c434e45 	mcrrmi	14, 4, r4, r3, cr5
 cf0:	51005252 	tstpl	r0, r2, asr r2
 cf4:	43495053 	movtmi	r5, #36947	; 0x9053
 cf8:	4c45534b 	mcrrmi	3, 4, r5, r5, cr11
 cfc:	434d0052 	movtmi	r0, #53330	; 0xd052
 d00:	4958415f 	ldmdbmi	r8, {r0, r1, r2, r3, r4, r6, r8, lr}^
 d04:	534e454d 	movtpl	r4, #58701	; 0xe54d
 d08:	00525445 	subseq	r5, r2, r5, asr #8
 d0c:	34495053 	strbcc	r5, [r9], #-83	; 0xffffffad
 d10:	534b4335 	movtpl	r4, #45877	; 0xb335
 d14:	00524c45 	subseq	r4, r2, r5, asr #24
 d18:	415f504d 	cmpmi	pc, sp, asr #32
 d1c:	4c314250 	lfmmi	f4, 4, [r1], #-320	; 0xfffffec0
 d20:	534e4550 	movtpl	r4, #58704	; 0xe550
 d24:	00525445 	subseq	r5, r2, r5, asr #8
 d28:	52434442 	subpl	r4, r3, #1107296256	; 0x42000000
 d2c:	42504100 	subsmi	r4, r0, #0, 2
 d30:	54535235 	ldrbpl	r5, [r3], #-565	; 0xfffffdcb
 d34:	52524c43 	subspl	r4, r2, #17152	; 0x4300
 d38:	474e5200 	strbmi	r5, [lr, -r0, lsl #4]
 d3c:	534b4331 	movtpl	r4, #45873	; 0xb331
 d40:	00524c45 	subseq	r4, r2, r5, asr #24
 d44:	34494153 	strbcc	r4, [r9], #-339	; 0xfffffead
 d48:	45534b43 	ldrbmi	r4, [r3, #-2883]	; 0xfffff4bd
 d4c:	4900524c 	stmdbmi	r0, {r2, r3, r6, r9, ip, lr}
 d50:	36344332 			; <UNDEFINED> instruction: 0x36344332
 d54:	45534b43 	ldrbmi	r4, [r3, #-2883]	; 0xfffff4bd
 d58:	4d00524c 	sfmmi	f5, 4, [r0, #-304]	; 0xfffffed0
 d5c:	50415f43 	subpl	r5, r1, r3, asr #30
 d60:	4e453542 	cdpmi	5, 4, cr3, cr5, cr2, {2}
 d64:	52524c43 	subspl	r4, r2, #17152	; 0x4300
 d68:	42535500 	subsmi	r5, r3, #0, 10
 d6c:	45534b43 	ldrbmi	r4, [r3, #-2883]	; 0xfffff4bd
 d70:	4100524c 	tstmi	r0, ip, asr #4
 d74:	4b435353 	blmi	10d5ac8 <_start-0xbef32538>
 d78:	524c4553 	subpl	r4, ip, #348127232	; 0x14c00000
 d7c:	5f434d00 	svcpl	0x00434d00
 d80:	35425041 	strbcc	r5, [r2, #-65]	; 0xffffffbf
 d84:	4e45504c 	cdpmi	0, 4, cr5, cr5, cr12, {2}
 d88:	52524c43 	subspl	r4, r2, #17152	; 0x4300
 d8c:	4c4c5000 	marmi	acc0, r5, ip
 d90:	00524331 	subseq	r4, r2, r1, lsr r3
 d94:	474d4954 	smlsldmi	r4, sp, r4, r9
 d98:	45525031 	ldrbmi	r5, [r2, #-49]	; 0xffffffcf
 d9c:	4c500052 	mrrcmi	0, 5, r0, r0, cr2	; <UNPREDICTABLE>
 da0:	5246334c 	subpl	r3, r6, #76, 6	; 0x30000001
 da4:	00524341 	subseq	r4, r2, r1, asr #6
 da8:	334c4c50 	movtcc	r4, #52304	; 0xcc50
 dac:	52474643 	subpl	r4, r7, #70254592	; 0x4300000
 db0:	5a540031 	bpl	1500e7c <_start-0xbeb07184>
 db4:	4f005243 	svcmi	0x00005243
 db8:	59445243 	stmdbpl	r4, {r0, r1, r6, r9, ip, lr}^
 dbc:	504d0052 	subpl	r0, sp, r2, asr r0
 dc0:	4250415f 	subsmi	r4, r0, #-1073741801	; 0xc0000017
 dc4:	45504c31 	ldrbmi	r4, [r0, #-3121]	; 0xfffff3cf
 dc8:	524c434e 	subpl	r4, ip, #939524097	; 0x38000001
 dcc:	504d0052 	subpl	r0, sp, r2, asr r0
 dd0:	4250415f 	subsmi	r4, r0, #-1073741801	; 0xc0000017
 dd4:	45504c32 	ldrbmi	r4, [r0, #-3122]	; 0xfffff3ce
 dd8:	5445534e 	strbpl	r5, [r5], #-846	; 0xfffffcb2
 ddc:	434d0052 	movtmi	r0, #53330	; 0xd052
 de0:	4248415f 	submi	r4, r8, #-1073741801	; 0xc0000017
 de4:	45504c34 	ldrbmi	r4, [r0, #-3124]	; 0xfffff3cc
 de8:	5445534e 	strbpl	r5, [r5], #-846	; 0xfffffcb2
 dec:	50410052 	subpl	r0, r1, r2, asr r0
 df0:	53523442 	cmppl	r2, #1107296256	; 0x42000000
 df4:	54455354 	strbpl	r5, [r5], #-852	; 0xfffffcac
 df8:	434d0052 	movtmi	r0, #53330	; 0xd052
 dfc:	4248415f 	submi	r4, r8, #-1073741801	; 0xc0000017
 e00:	534e4534 	movtpl	r4, #58676	; 0xe534
 e04:	00525445 	subseq	r5, r2, r5, asr #8
 e08:	43434d46 	movtmi	r4, #15686	; 0x3d46
 e0c:	4c45534b 	mcrrmi	3, 4, r5, r5, cr11
 e10:	4c500052 	mrrcmi	0, 5, r0, r0, cr2	; <UNPREDICTABLE>
 e14:	5343324c 	movtpl	r3, #12876	; 0x324c
 e18:	4d005247 	sfmmi	f5, 4, [r0, #-284]	; 0xfffffee4
 e1c:	48415f50 	stmdami	r1, {r4, r6, r8, r9, sl, fp, ip, lr}^
 e20:	504c3642 	subpl	r3, ip, r2, asr #12
 e24:	4c434e45 	mcrrmi	14, 4, r4, r3, cr5
 e28:	4d005252 	sfmmi	f5, 4, [r0, #-328]	; 0xfffffeb8
 e2c:	49435f43 	stmdbmi	r3, {r0, r1, r6, r8, r9, sl, fp, ip, lr}^
 e30:	53005246 	movwpl	r5, #582	; 0x246
 e34:	695f4950 	ldmdbvs	pc, {r4, r6, r8, fp, lr}^	; <UNPREDICTABLE>
 e38:	0074696e 	rsbseq	r6, r4, lr, ror #18
 e3c:	32736572 	rsbscc	r6, r3, #478150656	; 0x1c800000
 e40:	504d0032 	subpl	r0, sp, r2, lsr r0
 e44:	5453525f 	ldrbpl	r5, [r3], #-607	; 0xfffffda1
 e48:	4d005253 	sfmmi	f5, 4, [r0, #-332]	; 0xfffffeb4
 e4c:	48415f43 	stmdami	r1, {r0, r1, r6, r8, r9, sl, fp, ip, lr}^
 e50:	4e453642 	cdpmi	6, 4, cr3, cr5, cr2, {2}
 e54:	52544553 	subspl	r4, r4, #348127232	; 0x14c00000
 e58:	69616d00 	stmdbvs	r1!, {r8, sl, fp, sp, lr}^
 e5c:	00632e6e 	rsbeq	r2, r3, lr, ror #28
 e60:	6e69616d 	powvsez	f6, f1, #5.0
	...

Disassembly of section .debug_frame:

00000000 <.debug_frame>:
   0:	0000000c 	andeq	r0, r0, ip
   4:	ffffffff 			; <UNDEFINED> instruction: 0xffffffff
   8:	7c020001 	stcvc	0, cr0, [r2], {1}
   c:	000d0c0e 	andeq	r0, sp, lr, lsl #24
  10:	0000001c 	andeq	r0, r0, ip, lsl r0
  14:	00000000 	andeq	r0, r0, r0
  18:	c000835c 	andgt	r8, r0, ip, asr r3
  1c:	00000050 	andeq	r0, r0, r0, asr r0
  20:	8b040e42 	blhi	103930 <_start-0xbff046d0>
  24:	0b0d4201 	bleq	350830 <_start-0xbfcb77d0>
  28:	420d0d60 	andmi	r0, sp, #96, 26	; 0x1800
  2c:	00000ecb 	andeq	r0, r0, fp, asr #29
  30:	0000001c 	andeq	r0, r0, ip, lsl r0
  34:	00000000 	andeq	r0, r0, r0
  38:	c00083ac 	andgt	r8, r0, ip, lsr #7
  3c:	000001b8 			; <UNDEFINED> instruction: 0x000001b8
  40:	8b080e42 	blhi	203950 <_start-0xbfe046b0>
  44:	42018e02 	andmi	r8, r1, #2, 28
  48:	02040b0c 	andeq	r0, r4, #12, 22	; 0x3000
  4c:	080d0cd6 	stmdaeq	sp, {r1, r2, r4, r6, r7, sl, fp}
  50:	0000001c 	andeq	r0, r0, ip, lsl r0
  54:	00000000 	andeq	r0, r0, r0
  58:	c0008564 	andgt	r8, r0, r4, ror #10
  5c:	0000006c 	andeq	r0, r0, ip, rrx
  60:	8b080e42 	blhi	203970 <_start-0xbfe04690>
  64:	42018e02 	andmi	r8, r1, #2, 28
  68:	70040b0c 	andvc	r0, r4, ip, lsl #22
  6c:	00080d0c 	andeq	r0, r8, ip, lsl #26
  70:	0000001c 	andeq	r0, r0, ip, lsl r0
  74:	00000000 	andeq	r0, r0, r0
  78:	c00085d0 	ldrdgt	r8, [r0], -r0
  7c:	00000094 	muleq	r0, r4, r0
  80:	8b040e42 	blhi	103990 <_start-0xbff04670>
  84:	0b0d4201 	bleq	350890 <_start-0xbfcb7770>
  88:	0d0d4202 	sfmeq	f4, 4, [sp, #-8]
  8c:	000ecb42 	andeq	ip, lr, r2, asr #22
  90:	00000020 	andeq	r0, r0, r0, lsr #32
  94:	00000000 	andeq	r0, r0, r0
  98:	c0008664 	andgt	r8, r0, r4, ror #12
  9c:	000003e4 	andeq	r0, r0, r4, ror #7
  a0:	8b080e42 	blhi	2039b0 <_start-0xbfe04650>
  a4:	42018e02 	andmi	r8, r1, #2, 28
  a8:	03040b0c 	movweq	r0, #19212	; 0x4b0c
  ac:	0d0c01ec 	stfeqs	f0, [ip, #-944]	; 0xfffffc50
  b0:	00000008 	andeq	r0, r0, r8
  b4:	0000001c 	andeq	r0, r0, ip, lsl r0
  b8:	00000000 	andeq	r0, r0, r0
  bc:	c0008a48 	andgt	r8, r0, r8, asr #20
  c0:	0000006c 	andeq	r0, r0, ip, rrx
  c4:	8b040e42 	blhi	1039d4 <_start-0xbff0462c>
  c8:	0b0d4201 	bleq	3508d4 <_start-0xbfcb772c>
  cc:	420d0d6e 	andmi	r0, sp, #7040	; 0x1b80
  d0:	00000ecb 	andeq	r0, r0, fp, asr #29
  d4:	00000020 	andeq	r0, r0, r0, lsr #32
  d8:	00000000 	andeq	r0, r0, r0
  dc:	c0008ab4 			; <UNDEFINED> instruction: 0xc0008ab4
  e0:	000008c8 	andeq	r0, r0, r8, asr #17
  e4:	8b080e42 	blhi	2039f4 <_start-0xbfe0460c>
  e8:	42018e02 	andmi	r8, r1, #2, 28
  ec:	03040b0c 	movweq	r0, #19212	; 0x4b0c
  f0:	0d0c045e 	cfstrseq	mvf0, [ip, #-376]	; 0xfffffe88
  f4:	00000008 	andeq	r0, r0, r8
  f8:	00000030 	andeq	r0, r0, r0, lsr r0
  fc:	00000000 	andeq	r0, r0, r0
 100:	c000937c 	andgt	r9, r0, ip, ror r3
 104:	0000004c 	andeq	r0, r0, ip, asr #32
 108:	810c0e42 	tsthi	ip, r2, asr #28
 10c:	83028203 	movwhi	r8, #8707	; 0x2203
 110:	140e4201 	strne	r4, [lr], #-513	; 0xfffffdff
 114:	048e058b 	streq	r0, [lr], #1419	; 0x58b
 118:	100b0c42 	andne	r0, fp, r2, asr #24
 11c:	140d0c5a 	strne	r0, [sp], #-3162	; 0xfffff3a6
 120:	0ecbce42 	cdpeq	14, 12, cr12, cr11, cr2, {2}
 124:	c2c3420c 	sbcgt	r4, r3, #12, 4	; 0xc0000000
 128:	00000ec1 	andeq	r0, r0, r1, asr #29
 12c:	00000034 	andeq	r0, r0, r4, lsr r0
 130:	00000000 	andeq	r0, r0, r0
 134:	c00093c8 	andgt	r9, r0, r8, asr #7
 138:	0000004c 	andeq	r0, r0, ip, asr #32
 13c:	80100e42 	andshi	r0, r0, r2, asr #28
 140:	82038104 	andhi	r8, r3, #4, 2
 144:	42018302 	andmi	r8, r1, #134217728	; 0x8000000
 148:	068b180e 	streq	r1, [fp], lr, lsl #16
 14c:	0c42058e 	cfstr64eq	mvdx0, [r2], {142}	; 0x8e
 150:	0c5a140b 	cfldrdeq	mvd1, [sl], {11}
 154:	ce42180d 	cdpgt	8, 4, cr1, cr2, cr13, {0}
 158:	42100ecb 	andsmi	r0, r0, #3248	; 0xcb0
 15c:	c0c1c2c3 	sbcgt	ip, r1, r3, asr #5
 160:	0000000e 	andeq	r0, r0, lr
 164:	0000000c 	andeq	r0, r0, ip
 168:	ffffffff 			; <UNDEFINED> instruction: 0xffffffff
 16c:	7c020001 	stcvc	0, cr0, [r2], {1}
 170:	000d0c0e 	andeq	r0, sp, lr, lsl #24
 174:	0000001c 	andeq	r0, r0, ip, lsl r0
 178:	00000164 	andeq	r0, r0, r4, ror #2
 17c:	c0009414 	andgt	r9, r0, r4, lsl r4
 180:	000001e8 	andeq	r0, r0, r8, ror #3
 184:	8b040e42 	blhi	103a94 <_start-0xbff0456c>
 188:	0b0d4201 	bleq	350994 <_start-0xbfcb766c>
 18c:	0d0dec02 	stceq	12, cr14, [sp, #-8]
 190:	000ecb42 	andeq	ip, lr, r2, asr #22
 194:	0000001c 	andeq	r0, r0, ip, lsl r0
 198:	00000164 	andeq	r0, r0, r4, ror #2
 19c:	c00095fc 	strdgt	r9, [r0], -ip
 1a0:	00000060 	andeq	r0, r0, r0, rrx
 1a4:	8b080e42 	blhi	203ab4 <_start-0xbfe0454c>
 1a8:	42018e02 	andmi	r8, r1, #2, 28
 1ac:	6a040b0c 	bvs	102de4 <_start-0xbff0521c>
 1b0:	00080d0c 	andeq	r0, r8, ip, lsl #26
 1b4:	0000001c 	andeq	r0, r0, ip, lsl r0
 1b8:	00000164 	andeq	r0, r0, r4, ror #2
 1bc:	c000965c 	andgt	r9, r0, ip, asr r6
 1c0:	00000048 	andeq	r0, r0, r8, asr #32
 1c4:	8b080e42 	blhi	203ad4 <_start-0xbfe0452c>
 1c8:	42018e02 	andmi	r8, r1, #2, 28
 1cc:	5e040b0c 	vmlapl.f64	d0, d4, d12
 1d0:	00080d0c 	andeq	r0, r8, ip, lsl #26
 1d4:	0000001c 	andeq	r0, r0, ip, lsl r0
 1d8:	00000164 	andeq	r0, r0, r4, ror #2
 1dc:	c00096a4 	andgt	r9, r0, r4, lsr #13
 1e0:	0000004c 	andeq	r0, r0, ip, asr #32
 1e4:	8b040e42 	blhi	103af4 <_start-0xbff0450c>
 1e8:	0b0d4201 	bleq	3509f4 <_start-0xbfcb760c>
 1ec:	420d0d5e 	andmi	r0, sp, #6016	; 0x1780
 1f0:	00000ecb 	andeq	r0, r0, fp, asr #29
 1f4:	0000000c 	andeq	r0, r0, ip
 1f8:	ffffffff 			; <UNDEFINED> instruction: 0xffffffff
 1fc:	7c020001 	stcvc	0, cr0, [r2], {1}
 200:	000d0c0e 	andeq	r0, sp, lr, lsl #24
 204:	0000001c 	andeq	r0, r0, ip, lsl r0
 208:	000001f4 	strdeq	r0, [r0], -r4
 20c:	c00096f0 	strdgt	r9, [r0], -r0
 210:	00000070 	andeq	r0, r0, r0, ror r0
 214:	8b040e42 	blhi	103b24 <_start-0xbff044dc>
 218:	0b0d4201 	bleq	350a24 <_start-0xbfcb75dc>
 21c:	420d0d70 	andmi	r0, sp, #112, 26	; 0x1c00
 220:	00000ecb 	andeq	r0, r0, fp, asr #29
 224:	0000001c 	andeq	r0, r0, ip, lsl r0
 228:	000001f4 	strdeq	r0, [r0], -r4
 22c:	c0009760 	andgt	r9, r0, r0, ror #14
 230:	000000a4 	andeq	r0, r0, r4, lsr #1
 234:	8b080e42 	blhi	203b44 <_start-0xbfe044bc>
 238:	42018e02 	andmi	r8, r1, #2, 28
 23c:	02040b0c 	andeq	r0, r4, #12, 22	; 0x3000
 240:	080d0c4c 	stmdaeq	sp, {r2, r3, r6, sl, fp}
 244:	0000001c 	andeq	r0, r0, ip, lsl r0
 248:	000001f4 	strdeq	r0, [r0], -r4
 24c:	c0009804 	andgt	r9, r0, r4, lsl #16
 250:	000000b8 	strheq	r0, [r0], -r8
 254:	8b080e42 	blhi	203b64 <_start-0xbfe0449c>
 258:	42018e02 	andmi	r8, r1, #2, 28
 25c:	02040b0c 	andeq	r0, r4, #12, 22	; 0x3000
 260:	080d0c56 	stmdaeq	sp, {r1, r2, r4, r6, sl, fp}
 264:	0000000c 	andeq	r0, r0, ip
 268:	ffffffff 			; <UNDEFINED> instruction: 0xffffffff
 26c:	7c020001 	stcvc	0, cr0, [r2], {1}
 270:	000d0c0e 	andeq	r0, sp, lr, lsl #24
 274:	0000001c 	andeq	r0, r0, ip, lsl r0
 278:	00000264 	andeq	r0, r0, r4, ror #4
 27c:	c00098bc 			; <UNDEFINED> instruction: 0xc00098bc
 280:	00000018 	andeq	r0, r0, r8, lsl r0
 284:	8b040e42 	blhi	103b94 <_start-0xbff0446c>
 288:	0b0d4201 	bleq	350a94 <_start-0xbfcb756c>
 28c:	420d0d44 	andmi	r0, sp, #68, 26	; 0x1100
 290:	00000ecb 	andeq	r0, r0, fp, asr #29
 294:	0000000c 	andeq	r0, r0, ip
 298:	ffffffff 			; <UNDEFINED> instruction: 0xffffffff
 29c:	7c020001 	stcvc	0, cr0, [r2], {1}
 2a0:	000d0c0e 	andeq	r0, sp, lr, lsl #24
 2a4:	0000001c 	andeq	r0, r0, ip, lsl r0
 2a8:	00000294 	muleq	r0, r4, r2
 2ac:	c00098d4 	ldrdgt	r9, [r0], -r4
 2b0:	0000006c 	andeq	r0, r0, ip, rrx
 2b4:	8b040e42 	blhi	103bc4 <_start-0xbff0443c>
 2b8:	0b0d4201 	bleq	350ac4 <_start-0xbfcb753c>
 2bc:	420d0d6e 	andmi	r0, sp, #7040	; 0x1b80
 2c0:	00000ecb 	andeq	r0, r0, fp, asr #29
 2c4:	00000020 	andeq	r0, r0, r0, lsr #32
 2c8:	00000294 	muleq	r0, r4, r2
 2cc:	c0009940 	andgt	r9, r0, r0, asr #18
 2d0:	0000025c 	andeq	r0, r0, ip, asr r2
 2d4:	8b040e42 	blhi	103be4 <_start-0xbff0441c>
 2d8:	0b0d4201 	bleq	350ae4 <_start-0xbfcb751c>
 2dc:	0d012603 	stceq	6, cr2, [r1, #-12]
 2e0:	0ecb420d 	cdpeq	2, 12, cr4, cr11, cr13, {0}
 2e4:	00000000 	andeq	r0, r0, r0
 2e8:	0000001c 	andeq	r0, r0, ip, lsl r0
 2ec:	00000294 	muleq	r0, r4, r2
 2f0:	c0009b9c 	mulgt	r0, ip, fp
 2f4:	000000ec 	andeq	r0, r0, ip, ror #1
 2f8:	8b080e42 	blhi	203c08 <_start-0xbfe043f8>
 2fc:	42018e02 	andmi	r8, r1, #2, 28
 300:	02040b0c 	andeq	r0, r4, #12, 22	; 0x3000
 304:	080d0c70 	stmdaeq	sp, {r4, r5, r6, sl, fp}
 308:	0000000c 	andeq	r0, r0, ip
 30c:	ffffffff 			; <UNDEFINED> instruction: 0xffffffff
 310:	7c020001 	stcvc	0, cr0, [r2], {1}
 314:	000d0c0e 	andeq	r0, sp, lr, lsl #24
 318:	00000018 	andeq	r0, r0, r8, lsl r0
 31c:	00000308 	andeq	r0, r0, r8, lsl #6
 320:	c0009c88 	andgt	r9, r0, r8, lsl #25
 324:	00000014 	andeq	r0, r0, r4, lsl r0
 328:	8b080e42 	blhi	203c38 <_start-0xbfe043c8>
 32c:	42018e02 	andmi	r8, r1, #2, 28
 330:	00040b0c 	andeq	r0, r4, ip, lsl #22
